(dp0
S'ASS,'
p1
(dp2
S'___count___'
p3
I1
sS'BRAD!!'
p4
I1
ssS'better!'
p5
(dp6
S'[reaches'
p7
I1
sg3
I1
ssS'nowhere]'
p8
(dp9
S'___end___'
p10
I1
sg3
I1
ssS'9/11'
p11
(dp12
g3
I1
sS'it'
p13
I1
ssS'four'
p14
(dp15
g3
I1
sS'more'
p16
I1
ssS'Does'
p17
(dp18
g3
I1
sS'evil'
p19
I1
ssS'sleep'
p20
(dp21
S'through'
p22
I1
sg3
I1
ssS'hanging'
p23
(dp24
S'from'
p25
I1
sg3
I1
ssS'"The'
p26
(dp27
S'battery"?'
p28
I1
sg3
I1
ssS'hate'
p29
(dp30
S'to'
p31
I1
sS'the'
p32
I2
sg3
I3
ssS'consider'
p33
(dp34
S'this'
p35
I1
sS'my'
p36
I1
sg3
I2
ssS'up.'
p37
(dp38
g10
I3
sg3
I3
ssS'up,'
p39
(dp40
S'd-bags.'
p41
I1
sS'Morty!'
p42
I8
sS"y'know,"
p43
I1
sg3
I11
sS'my'
p44
I1
ssS'[brings'
p45
(dp46
g3
I1
sS'it'
p47
I1
ssS'bureaucrats'
p48
(dp49
g3
I1
sS'are'
p50
I1
ssS"I'm..."
p51
(dp52
S"I'm"
p53
I1
sg3
I1
ssS'up!'
p54
(dp55
g10
I1
sg3
I1
ssS'up?'
p56
(dp57
g10
I1
sg3
I1
ssS'under'
p58
(dp59
g3
I1
sS'your'
p60
I1
ssS'worth'
p61
(dp62
S'the'
p63
I1
sg3
I1
ssS'today?'
p64
(dp65
g3
I1
sS'Jesus'
p66
I1
ssS'Ghostbusters,'
p67
(dp68
g3
I1
sS'which'
p69
I1
ssS'shoot'
p70
(dp71
S'Summer'
p72
I1
sg3
I1
ssS'up]'
p73
(dp74
S'The'
p75
I1
sg3
I2
sS'Hey!'
p76
I1
ssS'every'
p77
(dp78
S'week'
p79
I1
sS'alternate'
p80
I1
sS'bad'
p81
I1
sg3
I9
sS'Rick'
p82
I1
sS'time'
p83
I2
sS'day'
p84
I1
sS'store'
p85
I1
sS'man'
p86
I1
ssS'today!'
p87
(dp88
S'Ar-ar-are'
p89
I1
sg3
I1
ssS'"Shum'
p90
(dp91
S'shum'
p92
I1
sg3
I1
ssS'today,'
p93
(dp94
S'M-Morty.'
p95
I1
sg3
I1
ssS'Huh,'
p96
(dp97
S'this'
p98
I1
sS'what'
p99
I1
sg3
I3
sS'looks'
p100
I1
ssS"we'll"
p101
(dp102
S'stop'
p103
I1
sS'be'
p104
I1
sg3
I2
ssS'worthless.'
p105
(dp106
S'I'
p107
I1
sg3
I1
ssS'skills'
p108
(dp109
S'and...'
p110
I1
sg3
I1
ssS'Uh,'
p111
(dp112
S'hi,'
p113
I1
sS'you'
p114
I1
sg3
I2
ssS'solution'
p115
(dp116
g3
I1
sS'but...'
p117
I1
ssS'PERSON'
p118
(dp119
S'ON'
p120
I1
sg3
I1
ssS'BFD?"'
p121
(dp122
S'So'
p123
I1
sg3
I1
ssS'Go'
p124
(dp125
S'to'
p126
I1
sg3
I1
ssS'Gazorpazorpfiel\xe2\x80\x94'
p127
(dp128
S'uh,'
p129
I1
sg3
I1
ssS'jumbling.'
p130
(dp131
S'What'
p132
I1
sg3
I1
ssS'me!'
p133
(dp134
S'We'
p135
I1
sg10
I2
sg107
I2
sg3
I7
sS'Calm'
p136
I1
sS'[all'
p137
I1
ssS'Ugh!'
p138
(dp139
S'You'
p140
I1
sg3
I1
ssS"It's-it's"
p141
(dp142
S'disgusting.'
p143
I1
sg3
I1
ssS'Ugh,'
p144
(dp145
S"I'm"
p146
I1
sg3
I2
sS'God,'
p147
I1
ssS'me,'
p148
(dp149
S'and'
p150
I1
sS"they're"
p151
I1
sS'dude.'
p152
I1
sS'Ice.'
p153
I1
sS'quick!'
p154
I1
sS'Morty!'
p155
I2
sS'Morty\xe2\x80\x94'
p156
I1
sg3
I14
sS'Morty?!'
p157
I2
sS"I'm"
p158
I1
sS'come'
p159
I1
sS'Morty.'
p160
I2
ssS'me.'
p161
(dp162
g10
I1
sg3
I3
sS'But'
p163
I1
sS'Hand'
p164
I1
ssS'Negative'
p165
(dp166
S'Nelly'
p167
I1
sg3
I1
ssS'ehh-jumper'
p168
(dp169
S'cables'
p170
I1
sg3
I1
ssS'created:'
p171
(dp172
S'the'
p173
I1
sg3
I1
ssS'others.'
p174
(dp175
g10
I1
sg3
I1
ssS'even'
p176
(dp177
S'human?'
p178
I1
sS'trip,'
p179
I1
sg107
I1
sg3
I5
sS'real?!'
p180
I1
sS'more'
p181
I1
ssS'hide'
p182
(dp183
S'from'
p184
I1
sg3
I1
ssS'applause.'
p185
(dp186
g3
I1
sS'[Summer'
p187
I1
ssS'fingers'
p188
(dp189
S'instead'
p190
I1
sg3
I1
ssS'This'
p191
(dp192
S'smells'
p193
I1
sS"pipe's"
p194
I1
sS'is'
p195
I10
sS'place'
p196
I2
sS'eerily'
p197
I1
sg3
I18
sS'guy'
p198
I1
sS"isn't"
p199
I2
ssS'Game'
p200
(dp201
S'of'
p202
I1
sg3
I2
sS'over!'
p203
I1
ssS'petri'
p204
(dp205
S'dish'
p206
I2
sg3
I2
ssS'new'
p207
(dp208
S'catchphrase'
p209
I1
sS'level'
p210
I1
sS'catchphrase.'
p211
I1
sS'situations'
p212
I1
sS'catchphrase!!'
p213
I1
sS'dance'
p214
I1
sg3
I8
sS'Adam'
p215
I1
sS'world.'
p216
I1
ssS'fruits.'
p217
(dp218
S"I'm"
p219
I1
sg3
I1
ssS'kid,'
p220
(dp221
g3
I2
sS'Morty.'
p222
I1
sS'Morty,'
p223
I1
ssS'BIRD'
p224
(dp225
g3
I1
sS'PERSON!!!'
p226
I1
ssS'kid.'
p227
(dp228
g3
I1
sS'[collapses]'
p229
I1
ssS'hero'
p230
(dp231
g3
I1
sS'out'
p232
I1
ssS'friendship,'
p233
(dp234
S'to'
p235
I1
sg3
I1
ssS'unjumble'
p236
(dp237
S'Summer'
p238
I1
sg3
I1
ssS'battery,'
p239
(dp240
g3
I1
sS'motherfucker!'
p241
I1
ssS'men'
p242
(dp243
S'and'
p244
I1
sg3
I1
ssS'here'
p245
(dp246
S'and'
p247
I2
sS'even'
p248
I1
sS'we'
p249
I1
sS'right'
p250
I1
sS'less'
p251
I1
sg107
I1
sS'is'
p252
I1
sS'because'
p253
I1
sg3
I11
sS'in'
p254
I1
sS'go'
p255
I1
ssS'herd'
p256
(dp257
S'of'
p258
I1
sg3
I1
ssS'monsters.'
p259
(dp260
g3
I1
sS'Yeah'
p261
I1
ssS'phone.'
p262
(dp263
g3
I1
sS"Don't"
p264
I1
ssS'active'
p265
(dp266
S'dreamer!'
p267
I1
sg3
I1
ssS'100'
p268
(dp269
S'years,'
p270
I1
sg3
I2
sS'years.'
p271
I1
ssS"aren't"
p272
(dp273
S'you?'
p274
I1
sg3
I1
ssS'[beat]'
p275
(dp276
S'You'
p277
I1
sg3
I1
ssS'[two'
p278
(dp279
g3
I1
sS'Rick'
p280
I1
ssS'daughter'
p281
(dp282
g3
I1
sS'in'
p283
I1
ssS'tranquillizer'
p284
(dp285
S'gun,'
p286
I1
sg3
I1
ssS'items'
p287
(dp288
g3
I1
sS'for'
p289
I1
ssS'credit'
p290
(dp291
S'sequence,'
p292
I1
sg3
I1
ssS'Little'
p293
(dp294
S'weird'
p295
I1
sg3
I1
ssS'Dumb.'
p296
(dp297
g10
I1
sg3
I1
ssS"DON'T"
p298
(dp299
S'EVEN'
p300
I1
sg3
I1
ssS'FUCK'
p301
(dp302
g3
I1
sS'UP'
p303
I1
ssS'replace'
p304
(dp305
S'them'
p306
I1
sg3
I1
ssS'offa'
p307
(dp308
g148
I1
sg3
I1
ssS'cons'
p309
(dp310
S'to'
p311
I1
sg3
I1
ssS'rifles]'
p312
(dp313
g10
I1
sg3
I1
ssS'cocaine'
p314
(dp315
S'and'
p316
I1
sg3
I1
ssS'SIMULATION?!!'
p317
(dp318
g10
I1
sg3
I1
ssS'charge'
p319
(dp320
S'my'
p321
I1
sg3
I1
ssS'would'
p322
(dp323
S'do'
p324
I1
sS'be'
p325
I1
sS'never'
p326
I1
sg3
I7
sS'have'
p327
I2
sS'you'
p328
I1
sS'he'
p329
I1
ssS'crying]'
p330
(dp331
S'Ladies?'
p332
I1
sg3
I1
ssS'right?'
p333
(dp334
g10
I1
sS"We'll"
p335
I1
sg3
I2
ssS'movie.'
p336
(dp337
g10
I1
sg3
I1
ssS'movie,'
p338
(dp339
S'The'
p340
I1
sS'Bill'
p341
I1
sg3
I2
ssS'Stay'
p342
(dp343
S'scientific,'
p344
I1
sg3
I1
ssS'call'
p345
(dp346
S'a'
p347
I1
sg130
I1
sS'"love"'
p348
I1
sg3
I3
ssS'calm'
p349
(dp350
g3
I3
sS'down,'
p351
I2
sS'down.'
p352
I1
ssS'CRAP,'
p353
(dp354
g3
I1
sS'MORTY,'
p355
I1
ssS'right,'
p356
(dp357
S'everybody'
p358
I1
sS'there.'
p359
I1
sS'all'
p360
I1
sS'well...'
p361
I1
sS'Morty!'
p362
I2
sg3
I11
sS"I'm"
p363
I1
sS'Morty,'
p364
I4
ssS'survive'
p365
(dp366
S'tonight,'
p367
I1
sg3
I1
ssS'right.'
p368
(dp369
S"Let's"
p370
I1
sS'This'
p371
I1
sg3
I2
ssS'type'
p372
(dp373
S'of\xe2\x80\x94'
p374
I1
sg3
I1
ssS'tell'
p375
(dp376
S'you'
p377
I1
sS'you,'
p378
I1
sg3
I3
sS'them'
p379
I1
ssS'trees,'
p380
(dp381
S'and'
p382
I1
sg3
I1
ssS'Y\xe2\x80\x94'
p383
(dp384
S'all'
p385
I1
sg3
I1
ssS'Okay,'
p386
(dp387
S"I'll"
p388
I1
sS'yes,'
p389
I1
sS'well,'
p390
I2
sS'yeah,'
p391
I1
sg3
I7
sS's-sorry'
p392
I1
sS'wait'
p393
I1
ssS'traceable'
p394
(dp395
g3
I1
sS'brainwave'
p396
I1
ssS'Okay.'
p397
(dp398
S'60'
p399
I1
sg3
I1
ssS'y-y-your'
p400
(dp401
S'naked'
p402
I1
sg3
I1
ssS'off!'
p403
(dp404
S'Not'
p405
I1
sg3
I1
ssS'phone'
p406
(dp407
S'and'
p408
I1
sg3
I1
ssS'(ERHH)'
p409
(dp410
S'broken'
p411
I1
sg3
I1
ssS'cured'
p412
(dp413
S'cancer,'
p414
I1
sg3
I1
ssS'hole'
p415
(dp416
S'into'
p417
I1
sg3
I1
ssS'hold'
p418
(dp419
S'on'
p420
I1
sg3
I1
ssS'off,'
p421
(dp422
S"you're"
p423
I1
sg3
I2
sS'crumple'
p424
I1
ssS'must'
p425
(dp426
S'save'
p427
I1
sg3
I1
ssg300
(dp428
g3
I1
sS'KNOW'
p429
I1
ssS'morally'
p430
(dp431
S'neutral'
p432
I1
sg3
I1
ssS'word'
p433
(dp434
S'and'
p435
I2
sS'had'
p436
I1
sg3
I5
sS'for'
p437
I1
sS'to'
p438
I1
ssS'setup'
p439
(dp440
g3
I1
sS'for...'
p441
I1
ssS'society!'
p442
(dp443
g3
I1
sS'They'
p444
I1
ssS'Here\xe2\x80\x99s'
p445
(dp446
g347
I1
sg3
I1
ssS'my'
p447
(dp448
S'ears'
p449
I1
sS'Helsings?!'
p450
I1
sS'portal'
p451
I2
sS'friend!'
p452
I1
sS'research,'
p453
I1
sS'guard'
p454
I1
sS'mouth.'
p455
I1
sS'best'
p456
I1
sS'inventory!'
p457
I1
sS'little'
p458
I1
sS'ass.'
p459
I2
sS'inventory.'
p460
I1
sS'cup'
p461
I1
sS'secrets,'
p462
I1
sS'family,'
p463
I1
sS'time,'
p464
I1
sS'genius'
p465
I1
sS'only'
p466
I1
sS'brand-new'
p467
I1
sS'God,'
p468
I5
sS'new'
p469
I2
sS'G\xe2\x80\x94'
p470
I1
sS'engine'
p471
I1
sS'laundry'
p472
I1
sg239
I1
sg406
I1
sg3
I49
sS'father.'
p473
I1
sS'hands,'
p474
I1
sS'balls!!'
p475
I1
sS'back!'
p476
I1
sS'weird...'
p477
I1
sg281
I1
sS'Pirates'
p478
I1
sS'grandson'
p479
I1
sS'grandson,'
p480
I1
sS'greatest'
p481
I1
sg262
I1
sS'ionic'
p482
I2
sS'dream'
p483
I1
sS'Go\xe2\x80\x94'
p484
I1
sS'grandkids.'
p485
I1
ssS"Zeep's"
p486
(dp487
S'mask]'
p488
I1
sg3
I1
ssS'the\xe2\x80\x94'
p489
(dp490
g3
I1
sS"that's"
p491
I1
ssS'is."'
p492
(dp493
g10
I1
sg3
I1
ssS'give'
p494
(dp495
g347
I3
sS'me'
p496
I2
sS'you'
p497
I1
sg3
I7
sS"'em"
p498
I1
ssS'kidding,'
p499
(dp500
S'my'
p501
I1
sg3
I1
ssS"who's"
p502
(dp503
S'homesick?'
p504
I1
sS'you'
p505
I1
sS'who'
p506
I1
sg3
I3
ssS'Jerry'
p507
(dp508
g3
I1
sS'here]'
p509
I1
ssS'[Zeep'
p510
(dp511
S'removes'
p512
I1
sg3
I1
ssS"jumpin'"
p513
(dp514
g3
I1
sS'in'
p515
I1
ssS'want'
p516
(dp517
S'to'
p518
I4
sS'you'
p519
I2
sg3
I9
sS'the'
p520
I2
sS'it?'
p521
I1
ssS'me-beh...'
p522
(dp523
S'make'
p524
I1
sg3
I1
ssS'mouth,'
p525
(dp526
g3
I1
sS'Morty.'
p527
I1
ssg455
(dp528
g10
I1
sg3
I1
ssS'people...'
p529
(dp530
S"You're"
p531
I1
sg3
I1
ssS'therapy.'
p532
(dp533
S'You'
p534
I1
sg3
I1
ssS'around,'
p535
(dp536
g3
I1
sS'Morty,'
p537
I1
ssS'end'
p538
(dp539
S'with'
p540
I1
sS'of'
p541
I2
sg3
I4
sS'to'
p542
I1
ssS'turn'
p543
(dp544
g347
I1
sS'into'
p545
I1
sg3
I2
ssS'travel'
p546
(dp547
S'through'
p548
I1
sg3
I1
ssS'nuts'
p549
(dp550
S'and/or'
p551
I1
sg3
I1
ssS'was...'
p552
(dp553
g3
I1
sS'uh...'
p554
I1
ssS'how'
p555
(dp556
S'we'
p557
I2
sS'simple'
p558
I1
sS"it's"
p559
I1
sS'about'
p560
I1
sS'it'
p561
I2
sg107
I1
sS'much'
p562
I1
sg3
I12
sS'many'
p563
I1
sS'every'
p564
I1
sS'little'
p565
I1
ssS'hot'
p566
(dp567
S'dogs.'
p568
I1
sg3
I1
ssS'answer'
p569
(dp570
S'is'
p571
I1
sg3
I2
sS'questions'
p572
I1
ssS"planet's"
p573
(dp574
S'core.'
p575
I1
sg3
I2
sS'name'
p576
I1
ssS'charging'
p577
(dp578
S'into'
p579
I1
sg3
I1
ssS'A'
p580
(dp581
S'BITCH!!!!'
p582
I1
sg3
I5
sS'hair,'
p583
I1
sS'lot'
p584
I1
sS'SIMULATION?!!!'
p585
I1
sg317
I1
ssS'somebody,'
p586
(dp587
S"y'know..."
p588
I1
sg3
I1
ssS'it!"'
p589
(dp590
g10
I1
sg3
I1
ssS'away.'
p591
(dp592
S'Oh,'
p593
I1
sg3
I1
ssS'mess'
p594
(dp595
g3
I2
sS'around'
p596
I1
sS'out'
p597
I1
ssS'after'
p598
(dp599
S'that,'
p600
I1
sS'tax!'
p601
I1
sS'you'
p602
I1
sg3
I3
ssS'Will'
p603
(dp604
S'you'
p605
I3
sg3
I3
ssS'wrong'
p606
(dp607
S'conceptual'
p608
I1
sS'with'
p609
I1
sg3
I2
ssS'lay'
p610
(dp611
g347
I1
sS'low.'
p612
I1
sg3
I2
ssS'timelines'
p613
(dp614
S'had'
p615
I1
sg3
I2
sS'have'
p616
I1
ssS'"Whoa,'
p617
(dp618
S'this'
p619
I1
sg3
I1
ssS'miniverse'
p620
(dp621
S'is'
p622
I1
sg3
I1
ssS'All'
p623
(dp624
S'we'
p625
I1
sS'day'
p626
I1
sg3
I14
sS'right!'
p627
I2
sS'right,'
p628
I8
sS'the'
p629
I1
sS'100'
p630
I1
ssS'c-character,'
p631
(dp632
g3
I1
sS'Morty.'
p633
I1
ssS'[at'
p634
(dp635
S'green'
p636
I1
sg3
I1
ssS'mouth]'
p637
(dp638
g10
I1
sg3
I1
ssS'Anybody?'
p639
(dp640
g10
I1
sg3
I1
ssS'appreciate'
p641
(dp642
S'you,'
p643
I1
sg3
I1
ssS'headquarters'
p644
(dp645
g3
I1
sS'for'
p646
I1
ssS'Meeseeks'
p647
(dp648
S'Box.'
p649
I1
sg3
I2
sS'fulfils'
p650
I1
ssS'C-Can'
p651
(dp652
S'we'
p653
I1
sg3
I1
ssg636
(dp654
S'deranged'
p655
I1
sg3
I1
ssS'enter'
p656
(dp657
g3
I1
sS"people's"
p658
I1
ssS'credits'
p659
(dp660
S'of'
p661
I1
sg3
I2
sS'on'
p662
I1
ssS'Trust'
p663
(dp664
S'me,'
p665
I1
sg3
I1
ssS'[an'
p666
(dp667
S'IQ'
p668
I1
sg3
I1
ssS'the,'
p669
(dp670
g3
I1
sS'uh...'
p671
I1
ssS'pinkeye'
p672
(dp673
S'because'
p674
I1
sg3
I1
ssS'school.'
p675
(dp676
S"I'm"
p677
I1
sg3
I1
ssS'over'
p678
(dp679
S'this'
p680
I1
sg3
I5
sS'planets.'
p681
I1
sS'each'
p682
I1
sS'the'
p683
I1
sS'really'
p684
I1
ssS'"I'
p685
(dp686
S"don't"
p687
I2
sg3
I3
sS'should'
p688
I1
ssS'down,'
p689
(dp690
S'Morty!'
p691
I4
sg3
I5
sS'which'
p692
I1
ssg352
(dp693
g10
I2
sg3
I3
sS'Listen'
p694
I1
ssS'ears.'
p695
(dp696
g10
I1
sg3
I1
ssS'before'
p697
(dp698
S'you'
p699
I4
sg3
I4
ssS'a-ehh'
p700
(dp701
g3
I1
sS'ehh'
p702
I1
ssS'His'
p703
(dp704
S'marriage'
p705
I1
sg3
I1
ssS'Hit'
p706
(dp707
S'the'
p708
I1
sg3
I1
ssS'then,'
p709
(dp710
S'when'
p711
I1
sS"y'know,"
p712
I1
sg3
I2
ssS'then-'
p713
(dp714
S'then'
p715
I1
sg3
I1
ssS'somewhere'
p716
(dp717
S'else,'
p718
I1
sg3
I2
sS'in'
p719
I1
ssS'fix'
p720
(dp721
g347
I1
sS'my'
p722
I2
sS'you'
p723
I1
sg3
I5
sS'your'
p724
I1
ssS'Here'
p725
(dp726
g3
I1
sS'\xe2\x80\x94'
p727
I1
ssS'better'
p728
(dp729
S'grades'
p730
I1
sg3
I1
ssS'bastards,'
p731
(dp732
g3
I1
sS'they'
p733
I1
ssS'differently'
p734
(dp735
S'abled.'
p736
I1
sg3
I1
ssS"What'd"
p737
(dp738
g107
I1
sg3
I1
ssS'terrorists,'
p739
(dp740
g347
I1
sg3
I1
ssS'then'
p741
(dp742
S"I'll"
p743
I1
sS'we'
p744
I1
sS"she'll"
p745
I1
sS'introduced'
p746
I1
sg107
I3
sS"it's"
p747
I1
sS"everything'll"
p748
I1
sS'it'
p749
I2
sS'so'
p750
I1
sS"we're"
p751
I1
sg3
I14
sS"we'll..."
p752
I1
ssS'welcome.'
p753
(dp754
g10
I1
sg3
I1
ssS'WA-A-A-A-AY'
p755
(dp756
S'the'
p757
I1
sg3
I1
ssS'erhp'
p758
(dp759
S'combine'
p760
I1
sg3
I1
ssS'Gotta'
p761
(dp762
S'go'
p763
I1
sg3
I1
ssS'safe'
p764
(dp765
S'from'
p766
I1
sS'knockoff'
p767
I1
sg3
I2
ssS'school'
p768
(dp769
S'of'
p770
I1
sg3
I1
ssS'break'
p771
(dp772
g3
I1
sS'it'
p773
I1
ssS'sulfur.'
p774
(dp775
S'So'
p776
I1
sg3
I1
ssS'they'
p777
(dp778
S'control'
p779
I1
sS'come.'
p780
I1
sS'buy'
p781
I1
sS'just'
p782
I1
sS'get'
p783
I3
sS'try'
p784
I1
sS'made'
p785
I2
sg3
I15
sS"won't"
p786
I1
sS'embed'
p787
I1
sS'now'
p788
I1
sS'dip'
p789
I1
sS'threw'
p790
I1
ssS'superintelligence'
p791
(dp792
S'is'
p793
I1
sg3
I1
ssS'one'
p794
(dp795
S'and'
p796
I1
sS'screw'
p797
I1
sS'detect'
p798
I1
sS'of'
p799
I3
sS'who'
p800
I1
sg3
I11
sS'up\xe2\x80\x94'
p801
I1
sS'night'
p802
I1
sS'world'
p803
I1
sS'guy'
p804
I1
ssS'operation,'
p805
(dp806
S'we'
p807
I1
sg3
I1
ssS'rocky'
p808
(dp809
g3
I1
sS'road'
p810
I1
ssS'oxygen'
p811
(dp812
g3
I1
sS'rich'
p813
I1
ssS"c'mon,"
p814
(dp815
g3
I1
sS'Morty,'
p816
I1
ssS'each'
p817
(dp818
S"other\xe2\x80\x94y'know,"
p819
I1
sS'other,'
p820
I2
sS'other'
p821
I2
sg3
I5
ssS'$50'
p822
(dp823
g3
I1
sS'gift'
p824
I1
ssS'went'
p825
(dp826
S'to'
p827
I2
sg3
I2
ssS'rapscallion!'
p828
(dp829
g10
I1
sg3
I1
ssS'side'
p830
(dp831
g3
I1
sS'effect'
p832
I1
ssS'bone'
p833
(dp834
g3
I1
sS'here,'
p835
I1
ssg627
(dp836
g10
I1
sg107
I1
sS'We'
p837
I1
sg3
I3
ssS'watches]'
p838
(dp839
S'Starting'
p840
I1
sg3
I1
ssS"we'd"
p841
(dp842
S'be'
p843
I1
sg3
I1
ssS'combining'
p844
(dp845
S'the'
p846
I1
sg3
I1
ssS'Zigerions'
p847
(dp848
g3
I1
sS'are'
p849
I1
ssS'is:'
p850
(dp851
g3
I1
sS'"I'
p852
I1
ssS'Abradolf'
p853
(dp854
S'Lincler?'
p855
I1
sg3
I1
ssS'is?'
p856
(dp857
g10
I1
sg3
I1
ssS'at,'
p858
(dp859
S'motherfucker?!'
p860
I1
sg3
I1
ssS'laid'
p861
(dp862
g3
I1
sS'in'
p863
I1
ssS'start.'
p864
(dp865
g10
I1
sg3
I1
ssS'is.'
p866
(dp867
S'Alright,'
p868
I1
sg3
I1
ssS'start,'
p869
(dp870
g3
I1
sS'Morty.'
p871
I1
ssS'is,'
p872
(dp873
g3
I1
sS'but'
p874
I1
ssS'bummer.'
p875
(dp876
g3
I1
sS'In'
p877
I1
ssS'is!'
p878
(dp879
g3
I1
sS"You've"
p880
I1
ssS'good\xe2\x80\x94'
p881
(dp882
S"you're"
p883
I1
sg3
I2
sS"You're"
p884
I1
ssS"'em."
p885
(dp886
S'And'
p887
I1
sg3
I2
sS'Fuck'
p888
I1
ssS'separately.'
p889
(dp890
g10
I1
sg3
I1
ssS"doesn't"
p891
(dp892
S'come'
p893
I1
sS'work'
p894
I1
sg3
I2
ssS'Jumbler'
p895
(dp896
S'got'
p897
I1
sg3
I1
ssS'Zeep]'
p898
(dp899
g3
I1
sS"That's"
p900
I1
ssS'maniac.'
p901
(dp902
g3
I1
sS"He's"
p903
I1
ssS'your\xe2\x80\x94'
p904
(dp905
S'you'
p906
I1
sg3
I1
ssS'free'
p907
(dp908
S'to'
p909
I1
sS'shit!'
p910
I1
sg3
I3
sS'stuff.'
p911
I1
ssS'parasite.'
p912
(dp913
g3
I1
sS'[Steve'
p914
I1
ssg658
(dp915
S'dreams,'
p916
I1
sg3
I1
ssS'wanted'
p917
(dp918
S'me'
p919
I1
sS'to'
p920
I3
sS'you'
p921
I1
sg3
I5
ssS'g\xe2\x80\x94'
p922
(dp923
S"you're"
p924
I1
sg3
I1
ssS'go.'
p925
(dp926
g10
I2
sg3
I2
ssS'anthropomorphic'
p927
(dp928
S'Pop-Tart'
p929
I1
sg3
I1
ssS'I-I'
p930
(dp931
S'was'
p932
I1
sS'use'
p933
I1
sg3
I3
sS'get'
p934
I1
ssS'starts'
p935
(dp936
S'chanting]'
p937
I1
sS'dancing'
p938
I1
sg330
I1
sS'kicking'
p939
I1
sg3
I5
sS'shimmying'
p940
I1
ssS'go!'
p941
(dp942
g278
I1
sg3
I2
sS'Just'
p943
I1
ssS'or...'
p944
(dp945
g3
I1
sS'those'
p946
I1
ssS'knives!'
p947
(dp948
g10
I1
sg3
I1
ssS'Y-Y-'
p949
(dp950
g3
I1
sS'ARE'
p951
I1
ssS'onto'
p952
(dp953
g3
I1
sS'table]'
p954
I1
ssS'EVERYBODY'
p955
(dp956
g3
I1
sS'in'
p957
I1
ssS'here.'
p958
(dp959
g10
I2
sS'These'
p960
I1
sg3
I3
ssS'Adolf'
p961
(dp962
g3
I1
sS'Hitler'
p963
I1
ssS'poofs'
p964
(dp965
S'away]'
p966
I1
sg3
I2
sS'out'
p967
I1
ssS'reconnected'
p968
(dp969
S'with'
p970
I1
sg3
I1
ssS'too.'
p971
(dp972
g107
I1
sg10
I1
sS'[all'
p973
I1
sg3
I4
sS'We'
p974
I1
ssS'incredib-bl-ly'
p975
(dp976
S'powerful'
p977
I1
sg3
I1
ssS'Please'
p978
(dp979
S'come'
p980
I2
sg3
I2
ssS'[no'
p981
(dp982
S'Morty'
p983
I1
sg3
I1
ssS'waste.'
p984
(dp985
S'[leaves,'
p986
I1
sg3
I1
ssS'another'
p987
(dp988
S'good'
p989
I1
sg3
I3
sS'way'
p990
I1
sS'pawn'
p991
I1
ssS'[Jerry'
p992
(dp993
S'lifts'
p994
I1
sg3
I1
ssS'priority'
p995
(dp996
S'is'
p997
I1
sg3
I1
ssS'notes,'
p998
(dp999
S'ad-libs";'
p1000
I1
sg3
I1
ssS'top'
p1001
(dp1002
g995
I1
sS'of'
p1003
I1
sg3
I2
ssS'girls'
p1004
(dp1005
S'leave'
p1006
I1
sg3
I1
ssS'needed'
p1007
(dp1008
g3
I1
sS'those'
p1009
I1
ssS'easy!'
p1010
(dp1011
S"They're"
p1012
I1
sg3
I1
ssS'Uncle'
p1013
(dp1014
g3
I1
sS'Sam'
p1015
I1
ssS'too'
p1016
(dp1017
S'bad.'
p1018
I1
sS'old'
p1019
I1
sg3
I2
ssS'Nintendo'
p1020
(dp1021
S'games!'
p1022
I1
sg3
I2
sS'3DS'
p1023
I1
ssS'zany,'
p1024
(dp1025
g3
I1
sS'wacky'
p1026
I1
ssS'dogs'
p1027
(dp1028
g3
I1
sS'captured'
p1029
I1
ssS'sure.'
p1030
(dp1031
g3
I1
sS'He'
p1032
I1
ssS'easy,'
p1033
(dp1034
g3
I1
sS'Morty,'
p1035
I1
ssS'murder'
p1036
(dp1037
g3
I1
sS'its'
p1038
I1
ssS'Cute.'
p1039
(dp1040
g3
I1
sS'Your'
p1041
I1
ssS'"Curse'
p1042
(dp1043
S'Purge'
p1044
I1
sg3
I1
ssS'think\xe2\x80\x94'
p1045
(dp1046
S'Whattaya'
p1047
I1
sg3
I1
ssS'pun-based'
p1048
(dp1049
g3
I1
sg115
I1
ssS'over.'
p1050
(dp1051
S'Now,'
p1052
I1
sg3
I1
ssS'Wait,'
p1053
(dp1054
S'wait,'
p1055
I1
sg3
I1
ssS'lunatic.'
p1056
(dp1057
g3
I1
sS'Calm'
p1058
I1
ssg1026
(dp1059
g3
I1
sS'characters'
p1060
I1
ssS'showed'
p1061
(dp1062
g3
I1
sS'up'
p1063
I1
ssS'Allah'
p1064
(dp1065
S'euuh...'
p1066
I1
sg3
I1
ssS'[drops'
p1067
(dp1068
S'it]'
p1069
I1
sg3
I1
ssS'matter'
p1070
(dp1071
S'with'
p1072
I2
sg3
I2
ssS'See'
p1073
(dp1074
S'you'
p1075
I1
sg3
I1
ssS'to.'
p1076
(dp1077
g107
I1
sg3
I1
ssS'zero?'
p1078
(dp1079
S'Now'
p1080
I1
sg3
I1
ssS'(erh)'
p1081
(dp1082
S'smidgens'
p1083
I1
sg3
I1
ssS'dimensions,'
p1084
(dp1085
S'so'
p1086
I1
sg3
I1
ssS'old.'
p1087
(dp1088
S'Maybe'
p1089
I1
sg3
I1
ssS'mojitos!'
p1090
(dp1091
g10
I1
sg3
I1
ssS'really..'
p1092
(dp1093
g3
I1
sg808
I1
ssS'mind'
p1094
(dp1095
S'into'
p1096
I1
sg3
I1
ssS'mine'
p1097
(dp1098
S'to'
p1099
I1
sg3
I1
ssS'glass'
p1100
(dp1101
S'lens...'
p1102
I1
sg3
I1
ssS'talking'
p1103
(dp1104
S'about'
p1105
I1
sg3
I2
sS'to?!'
p1106
I1
ssS'Computer,'
p1107
(dp1108
S'how'
p1109
I1
sg3
I1
ssS'seen'
p1110
(dp1111
g3
I1
sS'that'
p1112
I1
ssS'seem'
p1113
(dp1114
g3
I1
sS'pretty'
p1115
I1
ssS'dozen'
p1116
(dp1117
S'of'
p1118
I1
sg3
I1
ssS'Then'
p1119
(dp1120
g107
I1
sg3
I1
ssS'overdeveloped.'
p1121
(dp1122
g10
I1
sg3
I1
ssS'What?'
p1123
(dp1124
g10
I1
sg3
I2
sS'Why'
p1125
I1
ssS'NEVER'
p1126
(dp1127
S'SEEN'
p1128
I1
sg3
I2
sS'DO'
p1129
I1
ssS'point,'
p1130
(dp1131
S'you'
p1132
I1
sg3
I3
sS'Morty.'
p1133
I1
sS'Summer?!'
p1134
I1
ssg370
(dp1135
S'watch'
p1136
I1
sS'see'
p1137
I1
sg3
I4
sS'forget'
p1138
I1
sS'see.'
p1139
I1
ssS'boombox]'
p1140
(dp1141
g3
I1
sS'Just'
p1142
I1
ssS'They'
p1143
(dp1144
S'blew'
p1145
I1
sS'get'
p1146
I1
sS'pay'
p1147
I1
sS'work'
p1148
I1
sS'melt'
p1149
I1
sS'think'
p1150
I1
sg3
I8
sS'take'
p1151
I1
sS'dragged'
p1152
I1
ssS'purge.'
p1153
(dp1154
g10
I1
sg3
I1
ssg481
(dp1155
g3
I1
sS'adventure'
p1156
I1
ssS'blue'
p1157
(dp1158
g3
I1
sS'man'
p1159
I1
ssS'pen]'
p1160
(dp1161
S'See,'
p1162
I1
sg3
I1
ssS'exactly'
p1163
(dp1164
S'that]'
p1165
I1
sg3
I3
sS'how'
p1166
I1
sS'subtle'
p1167
I1
ssS'see?'
p1168
(dp1169
S'We'
p1170
I1
sg3
I1
ssS'giraffe?'
p1171
(dp1172
g10
I1
sg3
I1
ssS'[enters,'
p1173
(dp1174
g3
I1
sS'drunk]'
p1175
I1
ssS'cinematic'
p1176
(dp1177
S'images'
p1178
I1
sg3
I1
ssS'[laughs,'
p1179
(dp1180
g3
I1
sS'flips'
p1181
I1
ssS'___start___'
p1182
(dp1183
S"You're"
p1184
I4
sS'What'
p1185
I4
sS'Then-'
p1186
I1
sS'[pushes'
p1187
I1
sS'You-you-you'
p1188
I1
sS"We're"
p1189
I3
sS'Morty...'
p1190
I1
sS'Oh,'
p1191
I13
sS'Whoa,'
p1192
I1
sS'Full'
p1193
I1
sS'Ugh...'
p1194
I3
sS'Would'
p1195
I1
sS'\xe2\x80\x94and'
p1196
I1
sS'Whattaya'
p1197
I1
sS'Oh!'
p1198
I2
sS'Whoa!'
p1199
I2
sS'Thanks.'
p1200
I1
sS'Thanks,'
p1201
I2
sS'Not'
p1202
I1
sS'Now'
p1203
I1
sg737
I1
sS'Wait'
p1204
I1
sS'Washing'
p1205
I1
sS'Oh'
p1206
I7
sS'[walks'
p1207
I1
sS'\xe2\x80\x94the'
p1208
I1
sS'Morty\xe2\x80\x94'
p1209
I1
sS"I'm"
p1210
I6
sS'Where'
p1211
I1
sS'No,'
p1212
I9
sS"Don't"
p1213
I6
sS'Spoken'
p1214
I1
sS"I-I-I'm"
p1215
I1
sS'Alright,'
p1216
I3
sg111
I1
sS'KICK'
p1217
I1
sS'Take'
p1218
I3
sS'Hey,'
p1219
I6
sS'Wh-what-what'
p1220
I1
sS'[shoots'
p1221
I1
sS"Y-y-you're"
p1222
I1
sS'Microverse!!'
p1223
I1
sS'Right,'
p1224
I1
sS'Beating'
p1225
I1
sg1173
I1
sS"Y'know"
p1226
I1
sS'Somebody'
p1227
I1
sS'See?'
p1228
I1
sS"Wha-what's"
p1229
I1
sS'Look,'
p1230
I5
sS'Jerry,'
p1231
I1
sg224
I1
sS'Listen,'
p1232
I3
sS'Psyche!'
p1233
I1
sS'Look'
p1234
I1
sS'We'
p1235
I2
sS'Morty!'
p1236
I4
sS'[burps]'
p1237
I1
sS'Here,'
p1238
I1
sS'"World'
p1239
I1
sS'My'
p1240
I1
sS'Morty,'
p1241
I10
sS'"Watch'
p1242
I1
sg930
I1
sS'Me,'
p1243
I1
sS'[rummages'
p1244
I1
sS'Back'
p1245
I1
sS'Boy,'
p1246
I1
sS'But,'
p1247
I1
sS'Looks'
p1248
I1
sS'Pass'
p1249
I1
sS'Wubba'
p1250
I1
sg296
I1
sS'W-W-W-We'
p1251
I1
sS'HUH?!!'
p1252
I1
sS"Y'know,"
p1253
I1
sS'Geez,'
p1254
I2
sS"It's"
p1255
I11
sS'When'
p1256
I1
sS'Two'
p1257
I1
sS'Alright'
p1258
I1
sS'Too'
p1259
I1
sS'Was'
p1260
I1
sS'YOU'
p1261
I1
sS'Ooh,'
p1262
I2
sS'Get'
p1263
I2
sg949
I1
sg342
I1
sS'Ugh,'
p1264
I1
sS'Prepare'
p1265
I1
sS'Every'
p1266
I1
sS'Come'
p1267
I1
sS'Those'
p1268
I1
sS'H-hey,'
p1269
I1
sS'Apparently,'
p1270
I1
sS'Okay,'
p1271
I5
sg397
I1
sS'Well'
p1272
I1
sS'Uhh!'
p1273
I1
sg3
I308
sg1053
I1
sS'Close.'
p1274
I1
sS"That's"
p1275
I5
sS'And'
p1276
I2
sS'[belches]'
p1277
I1
sg96
I2
sS'Wh-why'
p1278
I1
sS'[opens'
p1279
I1
sg1064
I1
sS'Number'
p1280
I1
sS'[via'
p1281
I1
sS'Will'
p1282
I1
sS'Ohhh,'
p1283
I1
sS'Uhp-uhp-uhp!'
p1284
I1
sS'SHUT'
p1285
I2
sS'Ricks'
p1286
I1
sS"He's"
p1287
I1
sg510
I1
sS'It'
p1288
I1
sS'Wh-what'
p1289
I1
sS'How'
p1290
I1
sS'Calm'
p1291
I1
sS'Pretty'
p1292
I1
sS'You'
p1293
I10
sS'Rhetorical'
p1294
I1
sS'[regarding'
p1295
I1
sS"What're"
p1296
I1
sS'"Quantum'
p1297
I1
sg1123
I2
sS'Unity,'
p1298
I1
sS"Let's"
p1299
I1
sS'Ooh-la-la,'
p1300
I1
sS'Why'
p1301
I2
sg580
I1
sS'An'
p1302
I1
sg107
I9
sS'Maybe'
p1303
I1
sS'Hooh,'
p1304
I1
sS'[groans]'
p1305
I1
sS'Ice,'
p1306
I1
sS'Yeah.'
p1307
I3
sS'Yeah,'
p1308
I17
sS'The'
p1309
I4
sS'South'
p1310
I1
sS'Yeah!'
p1311
I1
sS'All'
p1312
I6
sS'Shut'
p1313
I1
sg634
I1
sS'Is'
p1314
I1
sS'Fuck'
p1315
I2
sg651
I1
sS'Well,'
p1316
I5
sS'As'
p1317
I1
sS'Wow,'
p1318
I1
sS'Have'
p1319
I1
sS"Goldenfold's"
p1320
I1
sg663
I1
sS'If'
p1321
I1
ssS'mouth'
p1322
(dp1323
S'tentacles'
p1324
I1
sS'shut'
p1325
I1
sg3
I2
ssS'long,'
p1326
(dp1327
S'forever...'
p1328
I1
sg3
I1
ssg1139
(dp1329
S'Giant'
p1330
I1
sg3
I1
ssS'"Go'
p1331
(dp1332
S'inside'
p1333
I1
sg3
I1
ssS'Ice?'
p1334
(dp1335
S'Probably'
p1336
I1
sg3
I1
ssg1175
(dp1337
S'Hey,'
p1338
I1
sg3
I1
ssS'I\xe2\x80\x99m'
p1339
(dp1340
S'begging'
p1341
I2
sg3
I5
sS'dying'
p1342
I1
sS'pleading'
p1343
I2
ssS'real,'
p1344
(dp1345
g3
I1
sS'but'
p1346
I1
ssS'door.'
p1347
(dp1348
g107
I1
sg3
I1
ssS'dog'
p1349
(dp1350
g3
I1
sS'time'
p1351
I1
ssS'shlippedy'
p1352
(dp1353
g3
I1
sS'dop"!'
p1354
I1
ssS'definitely'
p1355
(dp1356
g3
I1
sS'remember'
p1357
I1
ssS'real?'
p1358
(dp1359
g3
I1
sS"You'd"
p1360
I1
ssS'came'
p1361
(dp1362
S'from?'
p1363
I1
sg3
I1
ssS'planetary'
p1364
(dp1365
S'mindset,'
p1366
I1
sg3
I1
ssS'grown,'
p1367
(dp1368
g971
I1
sg3
I1
ssS'one-dimensional'
p1369
(dp1370
g3
I1
sS'now!'
p1371
I1
ssS'really\xe2\x80\x94'
p1372
(dp1373
S"I'm"
p1374
I1
sg3
I1
ssS'pops'
p1375
(dp1376
S'up]'
p1377
I1
sg3
I1
ssS'dream.'
p1378
(dp1379
g10
I1
sS'The'
p1380
I1
sg3
I2
ssS'hijinks.'
p1381
(dp1382
S"What's"
p1383
I1
sg3
I1
ssg1167
(dp1384
S'about'
p1385
I1
sg3
I1
ssS'bail'
p1386
(dp1387
g3
I1
sS'halfway'
p1388
I1
ssS'make'
p1389
(dp1390
g347
I2
sS'power.'
p1391
I1
sS'that'
p1392
I1
sS'clear'
p1393
I1
sS'children'
p1394
I1
sS'it'
p1395
I3
sS'him'
p1396
I1
sg3
I16
sS'ours'
p1397
I1
sS'you'
p1398
I3
sS'your'
p1399
I1
sS'sense.'
p1400
I1
ssS'ear,'
p1401
(dp1402
S'you'
p1403
I1
sg3
I1
ssS'REAL,'
p1404
(dp1405
S'Morty!'
p1406
I1
sg3
I1
ssg1196
(dp1407
S'then'
p1408
I1
sg3
I1
ssS'Big'
p1409
(dp1410
S'tough'
p1411
I1
sg3
I1
ssS'double-D'
p1412
(dp1413
g3
I1
sS'bra,'
p1414
I1
ssS'Eyeholes,'
p1415
(dp1416
g3
I1
sS'he'
p1417
I1
ssS'Because,'
p1418
(dp1419
S"y'know,"
p1420
I1
sg3
I1
ssS'Gazorpazorpfieeeld.'
p1421
(dp1422
g10
I1
sg3
I1
ssg813
(dp1423
S'people?'
p1424
I1
sg3
I2
sS'atmosphere,'
p1425
I1
ssS'[sigh]'
p1426
(dp1427
S'We'
p1428
I1
sg3
I1
ssS'do'
p1429
(dp1430
S'it.'
p1431
I2
sS'that,'
p1432
I2
sS'all'
p1433
I1
sS'you\xe2\x80\x94'
p1434
I1
sS'to'
p1435
I2
sS'this'
p1436
I1
sS'was'
p1437
I1
sS'ih...'
p1438
I1
sS'with'
p1439
I1
sS'that!'
p1440
I1
sS'yourself'
p1441
I1
sS'ya'
p1442
I1
sS'i-in-in'
p1443
I1
sS'now?'
p1444
I1
sg3
I27
sS'the'
p1445
I1
sS'it!'
p1446
I2
sS'my'
p1447
I1
sS'you'
p1448
I6
ssS'Turns'
p1449
(dp1450
g3
I1
sS'out'
p1451
I1
ssS'watch'
p1452
(dp1453
S'some'
p1454
I1
sS'you'
p1455
I2
sg3
I4
sS'your'
p1456
I1
ssg153
(dp1457
S'Youu'
p1458
I1
sg3
I1
ssS'about!'
p1459
(dp1460
g10
I1
sg3
I1
ssS'knocks'
p1461
(dp1462
S'his'
p1463
I1
sg3
I1
ssg954
(dp1464
S'These'
p1465
I1
sg3
I1
ssS'BE-YOTCH!!'
p1466
(dp1467
S'And'
p1468
I1
sg3
I1
ssS'galaxy,'
p1469
(dp1470
g107
I1
sg3
I1
ssS'sky,'
p1471
(dp1472
g3
I1
sg811
I1
ssS'rectal'
p1473
(dp1474
S'cavity.'
p1475
I1
sg3
I1
ssS'ever'
p1476
(dp1477
S'hear'
p1478
I1
sg3
I2
sS'happened'
p1479
I1
ssS'Over'
p1480
(dp1481
S'and'
p1482
I1
sg3
I1
ssS'microscope'
p1483
(dp1484
g3
I1
sS'that'
p1485
I1
ssS'one-hundredth'
p1486
(dp1487
S'the'
p1488
I1
sg3
I1
ssS'them.'
p1489
(dp1490
g10
I1
sg3
I1
ssg449
(dp1491
g3
I1
sS'are'
p1492
I1
ssg1145
(dp1493
g37
I1
sS'Summer'
p1494
I1
sg3
I2
ssS'fair'
p1495
(dp1496
S'to'
p1497
I1
sg3
I2
sS'way'
p1498
I1
ssS'headband]'
p1499
(dp1500
g3
I1
sg138
I1
ssS"thing\xe2\x80\x94I'm"
p1501
(dp1502
g3
I1
sS'gonna'
p1503
I1
ssS'him]'
p1504
(dp1505
S'Let'
p1506
I1
sg3
I2
sS'Just'
p1507
I1
ssS'cattle'
p1508
(dp1509
g3
I1
sS'or'
p1510
I1
ssS'best'
p1511
(dp1512
S'friend?!'
p1513
I1
sS'friend,'
p1514
I1
sg3
I4
sS'ice'
p1515
I1
sS'way'
p1516
I1
ssS'1-D!'
p1517
(dp1518
S'Now'
p1519
I1
sg3
I1
ssS'said'
p1520
(dp1521
g26
I1
sS'nobody'
p1522
I1
sg3
I3
sg1331
I1
ssg1227
(dp1523
S'probably'
p1524
I1
sS'droped'
p1525
I1
sg3
I2
ssS'game!'
p1526
(dp1527
S'Chapter'
p1528
I1
sS'We'
p1529
I1
sg3
I3
sS'E-ehhpi...sode'
p1530
I1
ssS'face,'
p1531
(dp1532
g3
I1
sS'motherfuckers!!'
p1533
I1
ssS'game.'
p1534
(dp1535
g10
I1
sg3
I1
ssS'Rise'
p1536
(dp1537
S'above.'
p1538
I1
sg3
I1
ssS'player,'
p1539
(dp1540
S'hate'
p1541
I1
sg3
I1
ssS"bull\xe2\x80\x94that's"
p1542
(dp1543
g555
I1
sg3
I1
ssS"wasn't"
p1544
(dp1545
S'like,'
p1546
I1
sg3
I1
ssS"there's"
p1547
(dp1548
S'people'
p1549
I1
sS'always'
p1550
I1
sS'some'
p1551
I1
sS'fruit'
p1552
I1
sg3
I6
sS'seeds'
p1553
I1
sS'any'
p1554
I1
ssg608
(dp1555
g3
I1
sS'horse.'
p1556
I1
ssS"name's"
p1557
(dp1558
S'Pichael!'
p1559
I1
sg3
I1
ssS'misguided'
p1560
(dp1561
S'effort'
p1562
I1
sg3
I1
ssS'with...'
p1563
(dp1564
g347
I1
sg3
I1
ssg1414
(dp1565
g3
I1
sS'get'
p1566
I1
ssg557
(dp1567
S'all'
p1568
I1
sS'could'
p1569
I1
sS'please?'
p1570
I1
sS'got,'
p1571
I1
sS'get'
p1572
I2
sS'are.'
p1573
I1
sS'did,'
p1574
I1
sS'gotta'
p1575
I4
sS"can't\xe2\x80\x94ever."
p1576
I1
sS'get...'
p1577
I1
sS'also'
p1578
I2
sg3
I29
sS'can'
p1579
I5
sg1061
I1
sS'got'
p1580
I3
sg1386
I1
sS'grow'
p1581
I1
sS"can't"
p1582
I1
sS'know'
p1583
I1
ssS'never'
p1584
(dp1585
S'do'
p1586
I1
sg3
I2
sS'betray'
p1587
I1
ssS'gonna\xe2\x80\x94'
p1588
(dp1589
S"I'm"
p1590
I2
sg3
I2
ssS'sale,'
p1591
(dp1592
S'plus'
p1593
I1
sg3
I1
ssS'boss'
p1594
(dp1595
g3
I1
sS'gave'
p1596
I1
ssg1238
(dp1597
S'go'
p1598
I1
sS'you'
p1599
I1
sg3
I3
sS'have'
p1600
I1
ssS'news'
p1601
(dp1602
S'though,'
p1603
I1
sg3
I2
sS'goes.'
p1604
I1
ssS'realities,'
p1605
(dp1606
S'Morty!'
p1607
I1
sg3
I1
ssg229
(dp1608
g10
I1
sg3
I1
ssS'Ds.'
p1609
(dp1610
S"You're"
p1611
I1
sg3
I1
ssS'climate'
p1612
(dp1613
S'conditions'
p1614
I1
sg3
I1
ssS'met'
p1615
(dp1616
g3
I1
sS'Bird'
p1617
I1
ssS'M-M...'
p1618
(dp1619
S'Morty?'
p1620
I1
sg3
I1
ssS'[Rick'
p1621
(dp1622
S'starts'
p1623
I1
sg3
I1
ssS'Focus'
p1624
(dp1625
S'on'
p1626
I1
sg3
I1
ssS'Bring'
p1627
(dp1628
g3
I1
sS'it'
p1629
I1
ssS'faces'
p1630
(dp1631
g3
I1
sS'stuffed'
p1632
I1
ssS'H-Hold'
p1633
(dp1634
g3
I1
sS'it!'
p1635
I1
ssS'requests'
p1636
(dp1637
S'simple.'
p1638
I1
sg3
I1
ssg736
(dp1639
S"I'm"
p1640
I1
sg3
I1
ssS'gamey'
p1641
(dp1642
g3
I1
sS'way'
p1643
I1
ssg1251
(dp1644
g3
I1
sS"don't"
p1645
I1
ssg1188
(dp1646
g3
I1
sS"don't"
p1647
I1
ssS'I-I-I-If'
p1648
(dp1649
g3
I1
sS'your'
p1650
I1
ssg1411
(dp1651
S'guy'
p1652
I1
sg3
I1
ssS'had'
p1653
(dp1654
g347
I2
sS'to\xe2\x80\x94'
p1655
I1
sS'used'
p1656
I1
sS'some'
p1657
I1
sS'to'
p1658
I5
sg3
I14
sS'the'
p1659
I2
sS't\xe2\x80\x94'
p1660
I2
ssS'money.'
p1661
(dp1662
S'You'
p1663
I1
sg3
I1
ssS'[Goldenfold'
p1664
(dp1665
S'open'
p1666
I1
sS'gets'
p1667
I1
sg3
I2
ssS'TREE,'
p1668
(dp1669
S'Morty!'
p1670
I1
sg3
I1
ssS'defraculate?'
p1671
(dp1672
g10
I1
sg3
I1
ssS'trust'
p1673
(dp1674
S'marriage.'
p1675
I1
sg3
I1
ssg1530
(dp1676
g3
I1
sS'3,'
p1677
I1
ssS'speak'
p1678
(dp1679
S'freely.'
p1680
I1
sg3
I1
ssS'now,'
p1681
(dp1682
g3
I2
sS"we're"
p1683
I1
sS'so,'
p1684
I1
ssS'now.'
p1685
(dp1686
g10
I1
sS"[Morty's"
p1687
I1
sg3
I4
sS'Check'
p1688
I1
sS'Earth'
p1689
I1
ssS"I've"
p1690
(dp1691
S'got'
p1692
I1
sg3
I3
sg1367
I1
sS'been'
p1693
I1
ssS'three'
p1694
(dp1695
g3
I1
sS'or'
p1696
I1
ssS'been'
p1697
(dp1698
S'paying'
p1699
I1
sS'exactly'
p1700
I1
sS'infested'
p1701
I1
sS'checking'
p1702
I1
sS'six'
p1703
I1
sS'able'
p1704
I1
sS'to'
p1705
I1
sg3
I8
sS'more'
p1706
I1
ssS'now?'
p1707
(dp1708
g10
I2
sg3
I2
ssS"You've"
p1709
(dp1710
S'got'
p1711
I1
sg3
I2
sS'been'
p1712
I1
ssS'stadium'
p1713
(dp1714
S'covered'
p1715
I1
sg3
I1
ssS'ehh-freaking'
p1716
(dp1717
g1056
I1
sg3
I1
ssg790
(dp1718
g347
I1
sg3
I1
ssS'life'
p1719
(dp1720
S'to'
p1721
I1
sS'all'
p1722
I1
sS'before?'
p1723
I1
sg3
I3
ssS'turned'
p1724
(dp1725
S'everything'
p1726
I1
sg3
I1
ssg1044
(dp1727
S'Plus"!'
p1728
I1
sg3
I1
ssS'weird...'
p1729
(dp1730
S'loser.'
p1731
I1
sS'little'
p1732
I1
sg3
I2
ssS'bitch!!'
p1733
(dp1734
g10
I1
sg3
I1
ssg450
(dp1735
S'Who'
p1736
I1
sg3
I1
ssg1274
(dp1737
S"It's"
p1738
I1
sg3
I1
ssS'has'
p1739
(dp1740
S'come'
p1741
I1
sS'width'
p1742
I1
sg3
I4
sS"'em"
p1743
I1
sS'been'
p1744
I1
ssS'biased,'
p1745
(dp1746
g3
I1
sS'but'
p1747
I1
ssS'stubs'
p1748
(dp1749
S'his'
p1750
I1
sg3
I1
ssS'okay.'
p1751
(dp1752
g107
I1
sg3
I1
ssS'tastes'
p1753
(dp1754
S'bad-ah.'
p1755
I1
sg3
I1
ssS'near'
p1756
(dp1757
S'someone'
p1758
I1
sg3
I1
ssS'suppose'
p1759
(dp1760
S'you'
p1761
I1
sg3
I1
ssS'engine,'
p1762
(dp1763
g3
I1
sS'Morty.'
p1764
I1
ssS'okay?'
p1765
(dp1766
g107
I1
sS'On'
p1767
I1
sg3
I2
ssS'voice'
p1768
(dp1769
S'of'
p1770
I2
sg3
I2
ssS'mistake'
p1771
(dp1772
S'this'
p1773
I1
sg3
I1
ssS'thought,'
p1774
(dp1775
g3
I1
sS'"Hey,'
p1776
I1
ssS'over,'
p1777
(dp1778
S'rickandmortyadventures.com.'
p1779
I1
sg3
I1
ssS'working.'
p1780
(dp1781
S'[the'
p1782
I1
sg3
I1
ssS'[grabs'
p1783
(dp1784
S'extingusher]'
p1785
I1
sg3
I1
ssS'played'
p1786
(dp1787
g3
I1
sS'in'
p1788
I1
ssS'whaddaya'
p1789
(dp1790
S'say,'
p1791
I1
sg3
I1
ssg793
(dp1792
S'just'
p1793
I3
sS"don't"
p1794
I1
sS'being'
p1795
I1
sS'ME,'
p1796
I1
sS'an'
p1797
I1
sS'something'
p1798
I1
sg23
I1
sS'our'
p1799
I1
sS'really'
p1800
I1
sS'BFFs'
p1801
I1
sS'to'
p1802
I2
sS"everyone's"
p1803
I1
sS'looking'
p1804
I1
sS'how'
p1805
I1
sS'bad,'
p1806
I1
sS'more'
p1807
I1
sS'it,'
p1808
I1
sS'full'
p1809
I1
sS'on,'
p1810
I1
sS'gonna'
p1811
I1
sg3
I48
sS'free'
p1812
I1
sS'not'
p1813
I3
sS'legit'
p1814
I1
sg347
I8
sS'one-seventh'
p1815
I1
sS'like'
p1816
I1
sS'always'
p1817
I1
sS'fine!'
p1818
I1
sS'unexpected.'
p1819
I1
sg1358
I1
sS'the'
p1820
I2
sS'my'
p1821
I3
sS'this?'
p1822
I1
ssS'you...'
p1823
(dp1824
S'marry'
p1825
I1
sg3
I1
ssS'it'
p1826
(dp1827
S'and'
p1828
I2
sS'just'
p1829
I1
sS'is'
p1830
I1
sS"doesn't\xe2\x80\x94"
p1831
I1
sS'down'
p1832
I2
sS'as'
p1833
I1
sS"won't"
p1834
I1
sS'looks'
p1835
I1
sS'in'
p1836
I4
sS'out'
p1837
I2
sS'up.'
p1838
I1
sS'up,'
p1839
I1
sg856
I1
sS'would'
p1840
I1
sS'had'
p1841
I1
sS'stops'
p1842
I1
sS'to'
p1843
I2
sS'either,'
p1844
I1
sS'does'
p1845
I2
sS'slowly'
p1846
I1
sS'goes'
p1847
I1
sg872
I1
sS'or...?'
p1848
I1
sS'easy.'
p1849
I1
sg1033
I1
sS'unless'
p1850
I1
sS'interesting,'
p1851
I1
sS'means'
p1852
I1
sS'might\xe2\x80\x94'
p1853
I1
sS'works.'
p1854
I1
sg3
I53
sS'makes'
p1855
I1
sS'from'
p1856
I1
sS'with'
p1857
I2
sS'on'
p1858
I1
sS'for'
p1859
I1
sS'this'
p1860
I1
sS'stop!'
p1861
I1
sS'work'
p1862
I1
sS'Catherine'
p1863
I1
sS'up'
p1864
I1
sS'out?'
p1865
I1
sg952
I1
sS'out.'
p1866
I1
sg1671
I1
ssg203
(dp1867
S'E-End'
p1868
I1
sg3
I1
ssS'skipping'
p1869
(dp1870
g347
I1
sg3
I1
ssS'her?!'
p1871
(dp1872
g10
I1
sg3
I1
ssS'in'
p1873
(dp1874
S'math!'
p1875
I1
sS'some'
p1876
I1
sS'high'
p1877
I1
sS'handcuffs?'
p1878
I1
sS'through'
p1879
I1
sS'our'
p1880
I1
sg314
I1
sS'your'
p1881
I8
sS'there,'
p1882
I1
sS'video'
p1883
I1
sS'memories'
p1884
I1
sS'there'
p1885
I1
sS'disguise.'
p1886
I1
sS'their'
p1887
I1
sS'which'
p1888
I1
sS'charge,'
p1889
I1
sS'real'
p1890
I2
sS'someone'
p1891
I1
sS'on'
p1892
I1
sS'here'
p1893
I1
sg3
I61
sS'public,'
p1894
I1
sS'those'
p1895
I2
sS'college.'
p1896
I1
sg347
I5
sS'unforeseeable'
p1897
I1
sS'last'
p1898
I1
sS'this'
p1899
I2
sS'this,'
p1900
I1
sS'every'
p1901
I1
sS'the'
p1902
I14
sS'my'
p1903
I3
sS'or'
p1904
I1
ssS'if'
p1905
(dp1906
S"you'd"
p1907
I1
sS'that'
p1908
I1
sg107
I3
sS"it's"
p1909
I1
sS'they'
p1910
I1
sS'so,'
p1911
I1
sS'any'
p1912
I1
sS"there's"
p1913
I2
sg3
I17
sS"we're"
p1914
I1
sS'want'
p1915
I1
sS'you'
p1916
I2
sS'the'
p1917
I1
sS'he'
p1918
I1
ssS'things'
p1919
(dp1920
g107
I1
sg3
I2
sS'that'
p1921
I1
ssS'realizing'
p1922
(dp1923
S'you'
p1924
I1
sg3
I1
ssS'toaster'
p1925
(dp1926
S'with'
p1927
I1
sS'home'
p1928
I1
sg3
I3
sS'car]'
p1929
I1
ssS'worry;'
p1930
(dp1931
g3
I1
sS'it'
p1932
I1
ssS'amount'
p1933
(dp1934
S'of'
p1935
I1
sg3
I1
ssg1576
(dp1936
g10
I1
sg3
I1
ssS'am\xe2\x80\x94which'
p1937
(dp1938
g107
I1
sg3
I1
ssS'big'
p1939
(dp1940
S'lie'
p1941
I1
sS'thorn'
p1942
I1
sg3
I4
sS'one.'
p1943
I1
sg1771
I1
ssS'ruh-ight'
p1944
(dp1945
S'about'
p1946
I1
sg3
I1
ssS'Zeep.'
p1947
(dp1948
g10
I1
sg3
I1
ssS'clicking'
p1949
(dp1950
g3
I1
sS'until'
p1951
I1
ssS'dawg!'
p1952
(dp1953
S'My'
p1954
I1
sg3
I1
ssg1303
(dp1955
g107
I1
sS"it's"
p1956
I1
sg3
I2
ssS'149.99'
p1957
(dp1958
S'on'
p1959
I1
sg3
I1
ssS'hang'
p1960
(dp1961
S'glider,'
p1962
I1
sg3
I1
ssg19
(dp1963
S'exist,'
p1964
I1
sg3
I1
ssS'hand'
p1965
(dp1966
S'me'
p1967
I3
sg3
I3
ssS'made!'
p1968
(dp1969
g3
I1
sS'It\xe2\x80\x99s'
p1970
I1
ssS'portal'
p1971
(dp1972
S'gun,'
p1973
I1
sg3
I3
sS'gun'
p1974
I2
ssg1060
(dp1975
g3
I1
sS'that'
p1976
I1
ssS'ihh-if'
p1977
(dp1978
S'Morty'
p1979
I1
sg3
I1
ssS"he'll"
p1980
(dp1981
S'try'
p1982
I1
sg3
I1
ssg1273
(dp1983
g3
I1
sS'Take'
p1984
I1
ssg767
(dp1985
S'of'
p1986
I1
sg3
I1
ssS'thing?'
p1987
(dp1988
g10
I1
sg3
I1
ssS'failing'
p1989
(dp1990
S'marriage.'
p1991
I1
sg3
I1
ssS'game'
p1992
(dp1993
S'and...'
p1994
I1
sS'developers'
p1995
I3
sg3
I6
sS'now!'
p1996
I1
sS'world'
p1997
I1
ssS'thing.'
p1998
(dp1999
g1409
I1
sg3
I3
sS'Bird'
p2000
I1
sS'Wait'
p2001
I1
ssS'weahh-wear'
p2002
(dp2003
g3
I1
sg421
I1
ssS'thing,'
p2004
(dp2005
S"I'll"
p2006
I1
sS'Ethan.'
p2007
I1
sg3
I3
sS'but'
p2008
I1
ssS'cool,'
p2009
(dp2010
g3
I2
sS'huh,'
p2011
I1
sS'huh?'
p2012
I1
ssg1902
(dp2013
S'Jumbler.'
p2014
I1
sS'government!'
p2015
I1
sS'rest'
p2016
I1
sS'stops'
p2017
I1
sS'speed'
p2018
I1
sS'ground'
p2019
I1
sS'perfect'
p2020
I2
sS'cycle,'
p2021
I1
sS'credits,'
p2022
I1
sS'bomb,'
p2023
I1
sS'credits!'
p2024
I2
sS'only'
p2025
I3
sS'field.'
p2026
I1
sg734
I1
sS'real'
p2027
I1
sS'house...'
p2028
I1
sg755
I1
sS'government'
p2029
I1
sS'request...'
p2030
I1
sS'sloppy'
p2031
I1
sS'game'
p2032
I2
sS'Eyehole'
p2033
I1
sS'world'
p2034
I2
sS'entire'
p2035
I2
sg1469
I1
sg1471
I1
sS'signal.'
p2036
I1
sS'screwdriver.'
p2037
I1
sS'garage'
p2038
I1
sS'surprise,'
p2039
I1
sS'guy'
p2040
I1
sS'toilet.'
p2041
I1
sS'wonders'
p2042
I1
sS'right'
p2043
I1
sS'pirates'
p2044
I1
sS'house'
p2045
I1
sS'sex'
p2046
I1
sg1501
I1
sS'video'
p2047
I1
sS'girl'
p2048
I1
sS'end,'
p2049
I1
sS'best'
p2050
I1
sS'total'
p2051
I1
sS'stands'
p2052
I1
sg1526
I2
sS'bottom'
p2053
I1
sS'movie'
p2054
I1
sS'game,'
p2055
I5
sg1539
I1
sS'time,'
p2056
I1
sS'genius'
p2057
I1
sS'time.'
p2058
I2
sS'monitor]'
p2059
I1
sS'[yells]'
p2060
I1
sS'size'
p2061
I1
sg121
I1
sS'C'
p2062
I1
sS'Council'
p2063
I1
sS'universe,'
p2064
I2
sS'powers.'
p2065
I1
sS'club,'
p2066
I1
sS'smartest'
p2067
I1
sS'news'
p2068
I1
sS'fuck?'
p2069
I1
sS'actual'
p2070
I1
sS'credits'
p2071
I1
sS'universe'
p2072
I1
sS'smartest.'
p2073
I1
sg606
I1
sS'important'
p2074
I1
sS'place'
p2075
I1
sS'resonator,'
p2076
I1
sS'first'
p2077
I1
sS'point'
p2078
I1
sS'garage.'
p2079
I1
sS'garage,'
p2080
I2
sS'one'
p2081
I1
sS'reward!'
p2082
I1
sS'worst!'
p2083
I1
sS'butter.'
p2084
I1
sS'ueh'
p2085
I1
sS'risk.'
p2086
I1
sS'top'
p2087
I1
sS'two'
p2088
I1
sg338
I1
sS'secret'
p2089
I1
sg1027
I1
sS'Pancreas.'
p2090
I1
sS'DNA'
p2091
I1
sS'sewer.'
p2092
I1
sS'gas'
p2093
I1
sS'N'
p2094
I1
sg3
I167
sS'same,'
p2095
I1
sS'curse,'
p2096
I1
sS'Cleansing'
p2097
I1
sS"hell's"
p2098
I1
sg1070
I2
sS'Olympics.'
p2099
I1
sS'nicest'
p2100
I1
sS'Megaseeds'
p2101
I1
sg287
I1
sS'situation'
p2102
I1
sg1768
I2
sS'sidekick'
p2103
I1
sS'frogs'
p2104
I1
sS'evidence'
p2105
I1
sS'high'
p2106
I2
sS'plan,'
p2107
I1
sS'"Rick'
p2108
I3
sS'shit'
p2109
I1
sS'chase'
p2110
I1
sS'microverse'
p2111
I1
sg538
I2
sS'train!'
p2112
I1
sg1919
I1
sg1130
I1
sS'same'
p2113
I4
sS'reality'
p2114
I1
sS'side]'
p2115
I1
sS'Red'
p2116
I1
sS'sack,'
p2117
I1
sS"planet's"
p2118
I1
sS'dime'
p2119
I1
sS'scammers,'
p2120
I1
sS'portals,'
p2121
I2
sS'metal,'
p2122
I1
sS'Megatree!'
p2123
I1
sS'intergalactic'
p2124
I2
sS'refrigerator.'
p2125
I1
sS'Milky'
p2126
I1
sS'Rick,'
p2127
I1
sS'multiverse!'
p2128
I1
sS'odds'
p2129
I1
sg1347
I1
sS'gara-a-age!'
p2130
I1
sg1998
I2
sg2004
I1
sS'time'
p2131
I1
sS'dream'
p2132
I1
sS'fact'
p2133
I1
ssS'musical'
p2134
(dp2135
g3
I1
sS'number!'
p2136
I1
ssS'dream,'
p2137
(dp2138
S'you'
p2139
I1
sg3
I2
sS'Morty!'
p2140
I1
ssg745
(dp2141
g3
I1
sS'have'
p2142
I1
ssS'Thank'
p2143
(dp2144
S'you.'
p2145
I1
sg3
I1
ssS'just'
p2146
(dp2147
S'slip'
p2148
I1
sS'some'
p2149
I1
sS'discovered'
p2150
I1
sg171
I1
sS'cure'
p2151
I1
sS'Rick'
p2152
I1
sS'have'
p2153
I1
sS'need'
p2154
I1
sS'Murder'
p2155
I1
sS'adds'
p2156
I1
sS'missed'
p2157
I1
sS'did,'
p2158
I1
sS'had'
p2159
I1
sS'to'
p2160
I2
sS'add'
p2161
I1
sS'take'
p2162
I2
sg1153
I1
sS'got'
p2163
I2
sS'eh-float'
p2164
I1
sS'allergic'
p2165
I1
sS'relax'
p2166
I1
sS'gonna'
p2167
I3
sg3
I44
sS'stick'
p2168
I1
sS'wanted'
p2169
I1
sS'sucked'
p2170
I1
sg347
I6
sS'like'
p2171
I1
sS'starts'
p2172
I1
sS'gotta'
p2173
I2
sS'keep'
p2174
I2
sS'playing'
p2175
I1
sS'saying,'
p2176
I1
ssS'THAT'
p2177
(dp2178
S'THING'
p2179
I1
sg3
I1
ssS'[Morty'
p2180
(dp2181
S'croaks'
p2182
I1
sg3
I1
ssS'photo'
p2183
(dp2184
S'of'
p2185
I1
sg3
I1
ssS'enter]'
p2186
(dp2187
S'Uh-oh...'
p2188
I1
sg3
I1
ssg730
(dp2189
g3
I1
sS'in'
p2190
I1
ssS'Lorenzo'
p2191
(dp2192
S'Music.'
p2193
I1
sg3
I1
ssS'human'
p2194
(dp2195
S'time.'
p2196
I1
sg3
I1
ssS'facts'
p2197
(dp2198
S'about'
p2199
I1
sg3
I1
ssS'yes'
p2200
(dp2201
g3
I1
sS'or'
p2202
I1
ssS'yet'
p2203
(dp2204
g3
I1
sS'or'
p2205
I1
ssS'actual...'
p2206
(dp2207
S'use'
p2208
I1
sg3
I1
ssS'taxes.'
p2209
(dp2210
g10
I1
sg3
I1
ssS'character'
p2211
(dp2212
S'with'
p2213
I1
sS'Bill'
p2214
I1
sg3
I2
ssS'd\xe2\x80\x94'
p2215
(dp2216
g3
I1
sS'Just'
p2217
I1
ssS'spread'
p2218
(dp2219
S'out,'
p2220
I1
sg3
I2
sS'through'
p2221
I1
ssg1731
(dp2222
g10
I1
sg3
I1
ssS'easy'
p2223
(dp2224
S'to'
p2225
I2
sg3
I2
ssS'office?'
p2226
(dp2227
S'You'
p2228
I1
sg3
I1
ssS'save'
p2229
(dp2230
g3
I2
sS'your'
p2231
I1
sS'production.'
p2232
I1
ssS'hat'
p2233
(dp2234
g3
I1
sS'trick.'
p2235
I1
ssg1596
(dp2236
S'me'
p2237
I1
sg3
I1
ssS'D'
p2238
(dp2239
S'back.'
p2240
I2
sS'back,'
p2241
I1
sg3
I3
ssS'ago!'
p2242
(dp2243
g10
I1
sg3
I1
ssg2030
(dp2244
S'[Meeseeks'
p2245
I1
sg3
I1
ssS'boxes'
p2246
(dp2247
S'of'
p2248
I1
sg3
I1
ssS'mother-[bleep]!'
p2249
(dp2250
S'[Engine'
p2251
I1
sg3
I1
ssS'sleep,'
p2252
(dp2253
g3
I1
sS'Morty.'
p2254
I1
ssS'sleep.'
p2255
(dp2256
g1119
I1
sg3
I1
ssg824
(dp2257
S'card\xe2\x80\x94brings'
p2258
I1
sg3
I1
ssS'hunt'
p2259
(dp2260
g347
I1
sg3
I1
ssS'specific'
p2261
(dp2262
S'old'
p2263
I1
sg3
I1
ssS'W-w-w-w...'
p2264
(dp2265
g3
I1
sS'Are'
p2266
I1
ssS'Are'
p2267
(dp2268
S'you'
p2269
I2
sg3
I2
ssS'night'
p2270
(dp2271
g347
I1
sS'the'
p2272
I1
sg3
I2
ssS'antique'
p2273
(dp2274
g3
I1
sS'or'
p2275
I1
ssS'right'
p2276
(dp2277
S'now,'
p2278
I1
sS'now.'
p2279
I1
sS'to'
p2280
I1
sg1707
I1
sg3
I5
sS'here,'
p2281
I1
ssS'old'
p2282
(dp2283
S'to'
p2284
I1
sS'lady.'
p2285
I1
sg3
I3
sS'stuff'
p2286
I1
ssS'deal'
p2287
(dp2288
S'with'
p2289
I2
sg3
I2
ssS'people'
p2290
(dp2291
S'even'
p2292
I1
sS'who'
p2293
I1
sS'join'
p2294
I1
sS'would'
p2295
I1
sS"don't"
p2296
I1
sS'get!'
p2297
I1
sS'sitting'
p2298
I1
sS'doing?!'
p2299
I1
sg345
I1
sS'in'
p2300
I2
sg3
I13
sS'you'
p2301
I1
sS'with'
p2302
I1
ssS'deaf'
p2303
(dp2304
S'because'
p2305
I1
sg3
I1
ssg1755
(dp2306
g3
I1
sS'No'
p2307
I1
ssS'dead'
p2308
(dp2309
S'selves'
p2310
I1
sS'self'
p2311
I1
sg3
I5
sS'best'
p2312
I1
sS'aliens'
p2313
I1
sS'man.'
p2314
I1
ssS'gasp]'
p2315
(dp2316
g10
I1
sg3
I1
ssS'born'
p2317
(dp2318
g64
I1
sS'on'
p2319
I1
sg3
I3
sg87
I1
ssg1878
(dp2320
g10
I1
sg3
I1
ssS'a\xe2\x80\x94'
p2321
(dp2322
S"You'r-you'r-you're"
p2323
I1
sg3
I1
ssS"sister's"
p2324
(dp2325
g3
I1
sg1594
I1
ssS'confusing'
p2326
(dp2327
S'and'
p2328
I1
sg3
I1
ssg367
(dp2329
S"you're"
p2330
I1
sg3
I1
ssS'got...'
p2331
(dp2332
g1078
I1
sg3
I1
ssg2051
(dp2333
S'price'
p2334
I1
sg3
I1
ssS'carburetor"?'
p2335
(dp2336
S'Jesus,'
p2337
I1
sg3
I1
ssS'trace'
p2338
(dp2339
S'the'
p2340
I1
sg3
I1
ssS'for'
p2341
(dp2342
S'all'
p2343
I1
sg1090
I1
sS'me,'
p2344
I1
sS'some'
p2345
I1
sS'it'
p2346
I1
sS'an'
p2347
I1
sS'230'
p2348
I1
sS'any'
p2349
I1
sS'letting'
p2350
I1
sg1404
I1
sg188
I1
sS'everything'
p2351
I1
sS'you'
p2352
I1
sS'beating'
p2353
I1
sS'you,'
p2354
I1
sS'Jews.'
p2355
I1
sg1957
I1
sS'cash,'
p2356
I1
sg3
I40
sS'72'
p2357
I1
sS'cool'
p2358
I1
sg347
I6
sS'help!'
p2359
I2
sS'this'
p2360
I1
sS'help,'
p2361
I2
sS'judgement,'
p2362
I1
sS'us'
p2363
I1
sS'yourself,'
p2364
I1
sS'each'
p2365
I1
sS'the'
p2366
I5
ssg2053
(dp2367
S'of'
p2368
I1
sg3
I1
ssS"why're"
p2369
(dp2370
S'you'
p2371
I1
sg3
I1
ssg1515
(dp2372
S'cream,'
p2373
I1
sg3
I3
sS'cave?!'
p2374
I1
sS'cream'
p2375
I1
ssg2351
(dp2376
S'about'
p2377
I1
sg3
I3
sS"they've"
p2378
I1
sS'back'
p2379
I1
ssS'Let'
p2380
(dp2381
S'me'
p2382
I5
sS'Me'
p2383
I1
sg3
I6
ssS'month.'
p2384
(dp2385
g10
I1
sg3
I1
ssS'beating'
p2386
(dp2387
S'you'
p2388
I2
sg3
I3
sS'the'
p2389
I1
ssg1032
(dp2390
S'also'
p2391
I1
sg3
I2
sS"would've"
p2392
I1
ssS'Rick-pig.'
p2393
(dp2394
g10
I1
sg3
I1
ssS"thing's"
p2395
(dp2396
g3
I1
sS'gonna'
p2397
I1
ssS'forever.'
p2398
(dp2399
g10
I1
sg3
I1
ssS'forever,'
p2400
(dp2401
g268
I1
sg3
I1
ssg2066
(dp2402
g3
I1
sS'pal.'
p2403
I1
ssg2232
(dp2404
g10
I1
sg3
I1
ssS"I'll..."
p2405
(dp2406
S"I'll"
p2407
I1
sg3
I1
ssg1559
(dp2408
g10
I1
sg3
I1
ssS'chapter'
p2409
(dp2410
S'of'
p2411
I2
sg3
I2
ssS"something's"
p2412
(dp2413
S'wrong'
p2414
I1
sg3
I1
ssS'intergalactic'
p2415
(dp2416
S'call'
p2417
I1
sS'government.'
p2418
I1
sg3
I4
sS'equivalent'
p2419
I1
sS'narc?!'
p2420
I1
ssg1593
(dp2421
S'every'
p2422
I1
sg3
I1
ssS'afternoon'
p2423
(dp2424
g3
I1
sS'at'
p2425
I1
ssS'MORTY!!!'
p2426
(dp2427
g3
I1
sS"WE'RE"
p2428
I1
ssS'Morty]'
p2429
(dp2430
g10
I1
sg3
I1
ssS'Now,'
p2431
(dp2432
g107
I1
sS'where'
p2433
I1
sS'guess'
p2434
I1
sS'who'
p2435
I1
sg3
I4
ssS'raised'
p2436
(dp2437
g3
I1
sS'by'
p2438
I1
ssS'for,'
p2439
(dp2440
S'Morty?!'
p2441
I1
sg3
I1
ssg612
(dp2442
g10
I1
sg3
I1
ssg2079
(dp2443
g10
I1
sg3
I1
ssS'ABOUT'
p2444
(dp2445
g3
I1
sS'MOON'
p2446
I1
ssg2080
(dp2447
S'transfer'
p2448
I1
sg3
I2
sS'Morty.'
p2449
I1
ssS'son'
p2450
(dp2451
S'of'
p2452
I1
sg3
I1
ssg1832
(dp2453
S'there,'
p2454
I1
sS'and'
p2455
I1
sS'on'
p2456
I1
sS'there'
p2457
I1
sS'to'
p2458
I1
sg3
I6
sg347
I1
ssg2083
(dp2459
g107
I1
sg3
I1
ssg914
(dp2460
S'morphs'
p2461
I1
sg3
I1
ssg2182
(dp2462
g3
I1
sS'out]'
p2463
I1
ssS'[shows'
p2464
(dp2465
S'hologram]'
p2466
I1
sg3
I1
ssS'impossible...'
p2467
(dp2468
g3
I1
sS'please,'
p2469
I1
ssS'screens.'
p2470
(dp2471
S'Do'
p2472
I1
sg3
I1
ssg414
(dp2473
S'Morty?!'
p2474
I1
sg3
I1
ssg164
(dp2475
S'me'
p2476
I1
sg3
I1
ssS'Break'
p2477
(dp2478
S'the'
p2479
I1
sg3
I1
ssS'device,'
p2480
(dp2481
g3
I1
sS'Morty,'
p2482
I1
ssS'[a'
p2483
(dp2484
g1157
I1
sg3
I2
sS'horrific'
p2485
I1
ssS'way'
p2486
(dp2487
S'to'
p2488
I2
sS'we'
p2489
I2
sg3
I5
sS'to...'
p2490
I1
ssS'clever?'
p2491
(dp2492
g107
I1
sg3
I1
ssS'was'
p2493
(dp2494
g2436
I1
sS'hoping'
p2495
I1
sS'just'
p2496
I1
sS'expecting,'
p2497
I1
sS'this'
p2498
I1
sS'able'
p2499
I1
sS'threatening'
p2500
I1
sS'hand'
p2501
I1
sg2317
I3
sg3
I13
sS'hacked'
p2502
I1
sS'the'
p2503
I1
ssS'why!'
p2504
(dp2505
g10
I1
sg3
I1
ssg2091
(dp2506
S'of'
p2507
I1
sg3
I2
sS'before'
p2508
I1
ssS'what?'
p2509
(dp2510
S'Why?'
p2511
I1
sg3
I2
sS'He'
p2512
I1
ssg512
(dp2513
g1609
I1
sS'his'
p2514
I1
sg3
I2
ssg1684
(dp2515
S'again'
p2516
I1
sg3
I2
sS'can'
p2517
I1
ssS'taken'
p2518
(dp2519
g591
I1
sg3
I1
ssS'hear'
p2520
(dp2521
S'about'
p2522
I2
sg3
I3
sS'anything.'
p2523
I1
ssS'Tiny'
p2524
(dp2525
S'Rick!!'
p2526
I1
sg3
I1
ssg2095
(dp2527
S'Summer!'
p2528
I1
sg3
I1
ssS'pay!'
p2529
(dp2530
g10
I1
sg3
I1
ssg474
(dp2531
g3
I1
sS'Morty.'
p2532
I1
ssS"else's"
p2533
(dp2534
g2137
I1
sg3
I1
ssS'inside'
p2535
(dp2536
g347
I1
sS"Snuffles'"
p2537
I1
sS'what?"'
p2538
I1
sg3
I5
sS'you'
p2539
I2
ssS'Time.'
p2540
(dp2541
S'There'
p2542
I1
sg3
I1
ssS'devices'
p2543
(dp2544
g3
I1
sS'in'
p2545
I1
ssS'until'
p2546
(dp2547
g347
I1
sS'you'
p2548
I2
sg3
I4
sS'he'
p2549
I1
ssg2446
(dp2550
g3
I1
sS'MEN!!'
p2551
I1
ssg2100
(dp2552
S'guy'
p2553
I1
sg3
I1
ssg1055
(dp2554
S'stop!'
p2555
I1
sg3
I1
ssS'not?'
p2556
(dp2557
g10
I1
sg3
I1
ssS'proud'
p2558
(dp2559
S'of'
p2560
I1
sg3
I1
ssS'$110'
p2561
(dp2562
S'after'
p2563
I1
sg3
I1
ssS'toss'
p2564
(dp2565
S'you'
p2566
I1
sg3
I1
ssS'labia'
p2567
(dp2568
S'and'
p2569
I1
sg3
I1
ssS'Fuck'
p2570
(dp2571
S'you.'
p2572
I1
sS'you,'
p2573
I1
sS'this'
p2574
I1
sS'you?'
p2575
I1
sg3
I8
sS'you!!'
p2576
I1
sS'Earth.'
p2577
I1
sS"'em."
p2578
I1
sS'those'
p2579
I1
ssS'alone?'
p2580
(dp2581
g1418
I1
sg3
I1
ssS"it's..."
p2582
(dp2583
g3
I1
sS'[burp]'
p2584
I1
ssS'ship'
p2585
(dp2586
S'full'
p2587
I1
sg3
I1
ssS'check'
p2588
(dp2589
g3
I2
sS'it'
p2590
I1
sS'out'
p2591
I1
ssg2109
(dp2592
g3
I1
sS'out'
p2593
I1
ssS'knows'
p2594
(dp2595
g3
I1
sS'if'
p2596
I1
ssg1342
(dp2597
g3
I1
sS'in'
p2598
I1
ssS'no'
p2599
(dp2600
S'\xe2\x80\x94'
p2601
I1
sS'stranger'
p2602
I1
sS'idea'
p2603
I1
sS'problem.'
p2604
I1
sS'height.'
p2605
I1
sg3
I6
sS'such'
p2606
I1
ssg2166
(dp2607
g3
I1
sS'for'
p2608
I1
ssS'when'
p2609
(dp2610
g107
I1
sS'you'
p2611
I2
sg3
I5
sS'they'
p2612
I2
ssg2114
(dp2613
S'where'
p2614
I1
sg3
I1
ssS'power'
p2615
(dp2616
S'my'
p2617
I1
sg3
I1
ssg2117
(dp2618
S'Jack.'
p2619
I1
sg3
I1
ssS'Tammy,'
p2620
(dp2621
S'well,'
p2622
I1
sg3
I1
ssS'enemies'
p2623
(dp2624
g3
I1
sS'in'
p2625
I1
ssS'hurry!'
p2626
(dp2627
g107
I1
sg3
I1
ssS'smidgens.'
p2628
(dp2629
g107
I1
sg3
I1
ssS'Www.rickandmortyadventures.'
p2630
(dp2631
S'All'
p2632
I1
sg3
I1
ssg194
(dp2633
g3
I1
sS'supposed'
p2634
I1
ssS'welcome'
p2635
(dp2636
S'to'
p2637
I1
sg3
I1
ssS'US!!!'
p2638
(dp2639
g3
I1
sS"WE'RE"
p2640
I1
ssS"let's"
p2641
(dp2642
g925
I1
sS'make'
p2643
I1
sg941
I1
sS'keep'
p2644
I1
sS'say'
p2645
I1
sg3
I6
sS'put'
p2646
I1
ssS'cover,'
p2647
(dp2648
S'Morty!!'
p2649
I1
sg3
I1
ssS'fell'
p2650
(dp2651
g3
I1
sS'in'
p2652
I1
ssS'tracked'
p2653
(dp2654
g3
I1
sS'it'
p2655
I1
ssS'younger'
p2656
(dp2657
S'clone'
p2658
I1
sg3
I1
ssS'faster'
p2659
(dp2660
g3
I1
sS'than'
p2661
I1
ssS'Person'
p2662
(dp2663
S'is'
p2664
I1
sg3
I1
ssS'swarming'
p2665
(dp2666
S'with'
p2667
I1
sg3
I1
ssg2121
(dp2668
S'Morty!'
p2669
I1
sg3
I2
sS'Morty.'
p2670
I1
ssS'together'
p2671
(dp2672
g3
I1
sS"we're"
p2673
I1
ssg2130
(dp2674
g3
I1
sS'[everyone'
p2675
I1
ssS'Obviously,'
p2676
(dp2677
S"I'm"
p2678
I1
sg3
I1
ssg2176
(dp2679
g3
I1
sS'if'
p2680
I1
ssg1351
(dp2681
g347
I1
sS'for'
p2682
I2
sS'is'
p2683
I1
sS'to'
p2684
I2
sg3
I8
sS'you'
p2685
I2
ssg2418
(dp2686
g3
I1
sS'Wh-wherever'
p2687
I1
ssS'T-Th-the'
p2688
(dp2689
S'game'
p2690
I1
sg3
I1
ssg214
(dp2691
g107
I1
sg3
I1
ssS'global'
p2692
(dp2693
S'scale.'
p2694
I1
sg3
I1
ssS'walking'
p2695
(dp2696
g347
I1
sg3
I1
ssS'robbing'
p2697
(dp2698
S'and'
p2699
I1
sg3
I1
ssS'90'
p2700
(dp2701
S'percent'
p2702
I1
sg3
I1
ssS'Answers.'
p2703
(dp2704
g10
I1
sg3
I1
ssS'tenth.'
p2705
(dp2706
g10
I1
sg3
I1
ssS'geez,'
p2707
(dp2708
g3
I1
sS'those'
p2709
I1
ssS'travel,'
p2710
(dp2711
S'kids,'
p2712
I1
sg3
I1
ssg1443
(dp2713
S'their'
p2714
I1
sg3
I1
ssS"th\xe2\x80\x94ther\xe2\x80\x94they're"
p2715
(dp2716
g975
I1
sg3
I1
ssS'turn,'
p2717
(dp2718
S'and'
p2719
I1
sg3
I1
ssS'Nice.'
p2720
(dp2721
g293
I1
sg3
I1
ssS'me'
p2722
(dp2723
S'and'
p2724
I1
sS'show'
p2725
I1
sS'some'
p2726
I1
sS'see'
p2727
I2
sS'retarded.'
p2728
I1
sS"tryin'"
p2729
I1
sS'out'
p2730
I1
sS'now.'
p2731
I1
sS'for'
p2732
I1
sS'had'
p2733
I1
sS'two'
p2734
I2
sS'how'
p2735
I1
sS'those'
p2736
I1
sS'that'
p2737
I1
sS'beat'
p2738
I1
sS'to...'
p2739
I1
sS'free'
p2740
I1
sg3
I37
sS'ask'
p2741
I1
sS'with'
p2742
I1
sS'mentally'
p2743
I1
sg347
I3
sS'on'
p2744
I1
sS'\xe2\x80\x94'
p2745
I1
sS'getting'
p2746
I1
sS'up'
p2747
I1
sS'out!'
p2748
I6
sS'the'
p2749
I1
sS'out,'
p2750
I1
ssS'singing]'
p2751
(dp2752
S'Let'
p2753
I1
sg3
I1
ssS'buddy!'
p2754
(dp2755
g10
I1
sg3
I1
ssS'buddy.'
p2756
(dp2757
S"H-h-how're"
p2758
I1
sg3
I1
ssg2031
(dp2759
S'details.'
p2760
I1
sg3
I1
ssS'soul.'
p2761
(dp2762
S'Pay'
p2763
I1
sg3
I1
ssS"here's-here's\xe2\x80\x94"
p2764
(dp2765
g3
I1
sS"here's"
p2766
I1
ssS'buddy?'
p2767
(dp2768
g603
I1
sg3
I1
ssS'trouble'
p2769
(dp2770
S'anyways.'
p2771
I1
sg3
I1
ssS'remember,'
p2772
(dp2773
g3
I1
sS'if'
p2774
I1
ssS'Night.'
p2775
(dp2776
g3
I1
sS"I-It's"
p2777
I1
ssg2358
(dp2778
S'and'
p2779
I1
sS'stuff'
p2780
I1
sg3
I2
ssS'Just'
p2781
(dp2782
S'do'
p2783
I1
sg2772
I1
sS"don't"
p2784
I1
sS'did'
p2785
I1
sg3
I11
sS'shake'
p2786
I4
sS'making'
p2787
I1
sS'you'
p2788
I1
sg499
I1
ssS'best,'
p2789
(dp2790
g3
I1
sS'but'
p2791
I1
ssS'tear'
p2792
(dp2793
g3
I1
sS'us'
p2794
I1
ssS'die'
p2795
(dp2796
g2580
I1
sg3
I3
sS'around'
p2797
I1
sS'for'
p2798
I1
ssS'W-We'
p2799
(dp2800
S'gotta'
p2801
I1
sg3
I2
sS"don't"
p2802
I1
ssg1974
(dp2803
S'and'
p2804
I1
sS'was'
p2805
I1
sg3
I2
ssg1006
(dp2806
S'him,'
p2807
I1
sg3
I1
ssS'one--'
p2808
(dp2809
S"It's"
p2810
I1
sg3
I1
ssS"Here's"
p2811
(dp2812
S'dessert.'
p2813
I1
sg3
I2
sS'your'
p2814
I1
ssS'quick'
p2815
(dp2816
g3
I1
sS'in'
p2817
I1
ssg1216
(dp2818
S'alright,'
p2819
I3
sg814
I1
sg3
I5
sS'Morty,'
p2820
I1
ssg1652
(dp2821
S'all'
p2822
I1
sS'from'
p2823
I1
sS'catches'
p2824
I1
sg3
I6
sS'in'
p2825
I1
sS'got'
p2826
I1
sS'teaches'
p2827
I1
ssg789
(dp2828
g3
I1
sS"'em"
p2829
I1
ssS'35C,'
p2830
(dp2831
S'and'
p2832
I1
sg3
I1
ssg1354
(dp2833
S'GRA-A-ASS...'
p2834
I1
sg3
I1
ssg2511
(dp2835
g10
I1
sg3
I1
ssg1148
(dp2836
S'and'
p2837
I1
sS'we'
p2838
I1
sS'for'
p2839
I1
sS'that'
p2840
I1
sg3
I5
sS'together,'
p2841
I1
ssg509
(dp2842
S'Oh.'
p2843
I1
sg3
I1
ssS'And,'
p2844
(dp2845
S'you'
p2846
I1
sg3
I1
ssg718
(dp2847
S'because'
p2848
I1
sg3
I1
ssS'else.'
p2849
(dp2850
S'These'
p2851
I1
sg3
I1
ssg582
(dp2852
g10
I1
sg3
I1
ssS'spiders,'
p2853
(dp2854
S'eleven'
p2855
I1
sg3
I1
ssg2152
(dp2856
S'and'
p2857
I8
sS'rules'
p2858
I1
sS'is'
p2859
I1
sS'officers'
p2860
I1
sS'here'
p2861
I1
sS'than'
p2862
I1
sg3
I16
sS'i-is'
p2863
I1
sS'you'
p2864
I1
sg1748
I1
ssS'had\xe2\x80\x94'
p2865
(dp2866
g107
I1
sg3
I1
ssg2116
(dp2867
g2540
I1
sg3
I1
ssS'INGENIOUS'
p2868
(dp2869
g3
I1
sS'IDEA'
p2870
I1
ssg2156
(dp2871
g3
I1
sS'up'
p2872
I1
ssg2052
(dp2873
g3
I1
sS'packed'
p2874
I1
ssg1228
(dp2875
S'Our'
p2876
I1
sg3
I1
ssg1149
(dp2877
g3
I1
sS'in'
p2878
I1
ssg2551
(dp2879
S'This'
p2880
I1
sg3
I1
ssS'remembered'
p2881
(dp2882
S'this'
p2883
I1
sg3
I1
ssS'goes'
p2884
(dp2885
S'to'
p2886
I1
sg3
I2
sS'around'
p2887
I1
ssS'uhh...'
p2888
(dp2889
S'how'
p2890
I1
sg3
I1
ssg1162
(dp2891
S'w-w-w-when'
p2892
I1
sg3
I2
sS"I've-I've"
p2893
I1
ssS'Me'
p2894
(dp2895
S'and'
p2896
I1
sg3
I2
sS'Out!\xe2\x80\x9d'
p2897
I1
ssS'favor,'
p2898
(dp2899
g3
I1
sS'Morty.'
p2900
I1
ssS'Adam\xe2\x80\x94'
p2901
(dp2902
g10
I1
sg3
I1
ssg1313
(dp2903
S'up,'
p2904
I1
sg3
I1
ssS'gahh-ods.'
p2905
(dp2906
g10
I1
sg3
I1
ssS"hadn't"
p2907
(dp2908
S'screwed'
p2909
I1
sg3
I1
ssS'Galactic'
p2910
(dp2911
g739
I1
sg3
I1
ssS'say,'
p2912
(dp2913
S'M-Morty.'
p2914
I1
sg3
I2
sg2767
I1
ssg2827
(dp2915
g3
I1
sS'high-school'
p2916
I1
ssS'[changes'
p2917
(dp2918
g3
I1
sS'channel]'
p2919
I1
ssS'wait'
p2920
(dp2921
S'to'
p2922
I1
sg3
I2
sg958
I1
ssS'box'
p2923
(dp2924
S'and'
p2925
I1
sS'of'
p2926
I1
sg3
I2
ssS'sending'
p2927
(dp2928
S'20'
p2929
I1
sg3
I1
ssS'nothing.'
p2930
(dp2931
g10
I1
sg3
I1
ssS'here?'
p2932
(dp2933
g10
I1
sg3
I1
ssS'CHI-I-I-I-I-ITZ!!!!'
p2934
(dp2935
g10
I1
sg3
I1
ssS'Inception,'
p2936
(dp2937
g3
I1
sS'Morty,'
p2938
I1
ssS'here,'
p2939
(dp2940
g1168
I1
sS'so'
p2941
I1
sg3
I3
sS'Morty,'
p2942
I1
ssg295
(dp2943
S'to'
p2944
I1
sg3
I1
ssS'MY'
p2945
(dp2946
S'LIFE,'
p2947
I1
sg3
I1
ssS'REAL'
p2948
(dp2949
g118
I1
sg3
I1
ssg1252
(dp2950
g3
I1
sS'ARE'
p2951
I1
ssS'love'
p2952
(dp2953
S'my'
p2954
I1
sg3
I3
sS'Tammy'
p2955
I1
sS'her'
p2956
I1
ssS'Sci-Fi'
p2957
(dp2958
S'word'
p2959
I1
sg3
I1
ssS'myself,'
p2960
(dp2961
S'you'
p2962
I1
sg3
I1
ssg1255
(dp2963
g347
I6
sS'boring,'
p2964
I1
sS'necessary'
p2965
I1
sS'like'
p2966
I3
sS'just'
p2967
I2
sS'time'
p2968
I1
sS'fine!'
p2969
I1
sg1697
I1
sS'whack!!'
p2970
I1
sg442
I1
sg3
I32
sS'gonna'
p2971
I2
sS'got'
p2972
I2
sS'not'
p2973
I3
sS'on.'
p2974
I1
sS'the'
p2975
I2
sS'not.'
p2976
I1
sS'Dimension'
p2977
I1
sS'got\xe2\x80\x94'
p2978
I1
sS'more'
p2979
I1
ssS'Www.rickandmorty.com.'
p2980
(dp2981
g2630
I1
sg3
I1
ssg473
(dp2982
g10
I1
sg3
I1
ssg1256
(dp2983
g107
I1
sg3
I1
ssS'diagram]'
p2984
(dp2985
S'the'
p2986
I1
sg3
I1
ssS'divorce'
p2987
(dp2988
S'already?'
p2989
I1
sg3
I1
ssS'fake'
p2990
(dp2991
S'loved'
p2992
I1
sg3
I2
sS'memories,'
p2993
I1
ssg688
(dp2994
g107
I1
sg3
I2
sS'get'
p2995
I1
ssS'inside]'
p2996
(dp2997
g3
I1
sS'Www.100timesrickandmorty.com.'
p2998
I1
ssS'wh-where'
p2999
(dp3000
S'uh,'
p3001
I1
sg3
I1
ssS'everybody'
p3002
(dp3003
g3
I2
sS'just'
p3004
I1
sS'listen'
p3005
I1
ssS'breed.'
p3006
(dp3007
g3
I1
sS'It'
p3008
I1
ssg1083
(dp3009
g3
I1
sS'for'
p3010
I1
ssS'live'
p3011
(dp3012
g3
I1
sS'in'
p3013
I1
ssS'dictators,'
p3014
(dp3015
S'most'
p3016
I1
sg3
I1
ssS'somersault'
p3017
(dp3018
S'jump!'
p3019
I1
sg3
I1
ssS'memory'
p3020
(dp3021
g3
I1
sS'in'
p3022
I1
ssg1268
(dp3023
S'guys'
p3024
I1
sg3
I1
ssS'loving'
p3025
(dp3026
S'like,'
p3027
I1
sg3
I1
ssS'Bloom,'
p3028
(dp3029
S"it's"
p3030
I1
sg3
I1
ssS'series.'
p3031
(dp3032
g10
I1
sg3
I1
ssS'fades,'
p3033
(dp3034
g3
I1
sS'leaving'
p3035
I1
ssg2851
(dp3036
S'telepathic'
p3037
I1
sg847
I1
sg3
I3
sS'are'
p3038
I1
ssg1562
(dp3039
S'of'
p3040
I1
sg3
I1
ssS'lighthouse,'
p3041
(dp3042
g107
I1
sg3
I1
ssg2919
(dp3043
g10
I1
sg3
I1
ssg2373
(dp3044
g3
I1
sg2249
I1
ssg209
(dp3045
g850
I1
sg3
I1
ssS'car'
p3046
(dp3047
S'battery'
p3048
I1
sS'word'
p3049
I1
sg3
I3
sS'look'
p3050
I1
ssg2687
(dp3051
S'you'
p3052
I1
sg3
I1
ssS'means.'
p3053
(dp3054
g10
I1
sg3
I1
ssS'cat'
p3055
(dp3056
S'on'
p3057
I1
sg3
I1
ssS'purge'
p3058
(dp3059
S'them'
p3060
I1
sS'planet.'
p3061
I1
sg3
I4
sS'it'
p3062
I1
sS'us,'
p3063
I1
ssS'case]'
p3064
(dp3065
g10
I1
sg3
I1
ssS'can'
p3066
(dp3067
S'play'
p3068
I1
sS'be'
p3069
I2
sS'use'
p3070
I1
sS'accomplish'
p3071
I1
sS'handle'
p3072
I1
sS'just'
p3073
I1
sS'do'
p3074
I3
sg720
I1
sS'get'
p3075
I1
sS'we'
p3076
I1
sS'send'
p3077
I1
sS'one'
p3078
I1
sg543
I1
sS'control'
p3079
I2
sg3
I23
sg656
I1
sS'launch'
p3080
I1
sS'you'
p3081
I1
sS'flip'
p3082
I1
sg1678
I1
ssg1284
(dp3083
g3
I1
sS'Morty,'
p3084
I1
ssS'growing'
p3085
(dp3086
S'into'
p3087
I1
sg3
I2
sS'up'
p3088
I1
ssS'making'
p3089
(dp3090
S'my'
p3091
I1
sS'them'
p3092
I2
sg3
I4
sS'conversation'
p3093
I1
ssS'Out'
p3094
(dp3095
S'of'
p3096
I1
sg3
I1
ssS'portals'
p3097
(dp3098
S'all'
p3099
I1
sS'right'
p3100
I1
sg3
I2
ssS'guy,'
p3101
(dp3102
g3
I2
sS'Morty.'
p3103
I2
ssS'figure'
p3104
(dp3105
S'this'
p3106
I1
sg3
I1
ssg2104
(dp3107
S'out,'
p3108
I1
sg3
I1
ssS"didn't"
p3109
(dp3110
g3
I1
sS'take'
p3111
I1
ssS'fuck'
p3112
(dp3113
S'me'
p3114
I1
sS'me!'
p3115
I1
sS'what'
p3116
I1
sg3
I4
sS'the'
p3117
I1
ssS'unloads'
p3118
(dp3119
S'laser'
p3120
I1
sg3
I1
ssS'this...'
p3121
(dp3122
S'work'
p3123
I1
sg3
I1
ssg2348
(dp3124
S'bucks'
p3125
I1
sg3
I1
ssS'YOUR'
p3126
(dp3127
S'LIFE,'
p3128
I1
sg3
I1
ssS'magenta'
p3129
(dp3130
S'enzymes'
p3131
I1
sg3
I1
ssS'Who'
p3132
(dp3133
S'wants'
p3134
I1
sS'let'
p3135
I1
sS'invited'
p3136
I1
sg3
I3
ssS'portal]'
p3137
(dp3138
S'There'
p3139
I1
sg3
I1
ssS'freezer'
p3140
(dp3141
S'and'
p3142
I1
sg3
I1
ssg1298
(dp3143
S'who'
p3144
I1
sg3
I2
sS'Unity,'
p3145
I1
ssS'chemical'
p3146
(dp3147
S'reaction'
p3148
I1
sg3
I1
ssS'outta\xe2\x80\x94'
p3149
(dp3150
g3
I1
sS'back'
p3151
I1
ssS'guarantee'
p3152
(dp3153
S'you'
p3154
I1
sg3
I2
sS'they'
p3155
I1
ssg1300
(dp3156
S"someone's"
p3157
I1
sg3
I1
ssS'Why'
p3158
(dp3159
g322
I1
sS"don't"
p3160
I1
sS'did'
p3161
I1
sg2556
I1
sS'am'
p3162
I1
sg3
I5
ssg568
(dp3163
g10
I1
sg3
I1
ssg472
(dp3164
g3
I1
sS'for'
p3165
I1
ssg2111
(dp3166
S'sucks!!'
p3167
I1
sS'battery.'
p3168
I1
sg3
I2
ssg2658
(dp3169
S'of'
p3170
I1
sg3
I1
ssS'listen!'
p3171
(dp3172
S'We'
p3173
I1
sg3
I1
ssS'horrified.'
p3174
(dp3175
g10
I1
sg3
I1
ssS'controls.'
p3176
(dp3177
g10
I1
sg3
I1
ssg3168
(dp3178
g10
I1
sg3
I1
ssS"Do-don't-don't"
p3179
(dp3180
S'be'
p3181
I1
sg3
I1
ssS'suck'
p3182
(dp3183
g3
I1
sS'up'
p3184
I1
ssS'guys'
p3185
(dp3186
S'do'
p3187
I1
sS'right'
p3188
I1
sS'outta'
p3189
I1
sS'clearly'
p3190
I1
sg3
I9
sS'are'
p3191
I3
sS'have'
p3192
I1
sS'realize'
p3193
I1
ssg1581
(dp3194
S'as'
p3195
I1
sg3
I1
ssg1159
(dp3196
S'could'
p3197
I1
sg3
I3
sg964
I1
sS'that'
p3198
I1
ssg1357
(dp3199
S'doing'
p3200
I1
sS'eight'
p3201
I1
sg3
I2
ssg479
(dp3202
S'wants'
p3203
I1
sg3
I1
ssS'different,'
p3204
(dp3205
g3
I1
sS'but'
p3206
I1
ssS'a...'
p3207
(dp3208
g347
I1
sS'whole'
p3209
I1
sS'roofie-juice'
p3210
I1
sg3
I3
ssS'so'
p3211
(dp3212
g107
I1
sS'is'
p3213
I1
sS'much,'
p3214
I1
sS'does'
p3215
I1
sg3
I14
sS'are'
p3216
I1
sS'they'
p3217
I1
sS'you'
p3218
I3
sS'he'
p3219
I3
sS"here's"
p3220
I1
sS'if'
p3221
I1
ssS'pulled'
p3222
(dp3223
S'all'
p3224
I1
sg3
I1
ssg424
(dp3225
g3
I1
sS'up'
p3226
I1
ssS'talk'
p3227
(dp3228
S'about'
p3229
I1
sg3
I1
ssS'no,'
p3230
(dp3231
S'no,'
p3232
I4
sS'that'
p3233
I1
sg107
I1
sS'fuck'
p3234
I1
sS'but'
p3235
I1
sg3
I9
sS'Morty,'
p3236
I1
ssS'know\xe2\x80\x94my'
p3237
(dp3238
S'now'
p3239
I1
sg3
I1
ssS'furnished'
p3240
(dp3241
g2226
I1
sg3
I1
ssg1181
(dp3242
g3
I1
sS'screen]'
p3243
I1
ssS'brain'
p3244
(dp3245
S'functionality'
p3246
I1
sg3
I2
sS'so'
p3247
I1
ssS'fish,'
p3248
(dp3249
g3
I1
sg944
I1
ssg2786
(dp3250
g3
I4
sS'that'
p3251
I4
ssS'still'
p3252
(dp3253
S'alive.'
p3254
I1
sg3
I1
ssS'police'
p3255
(dp3256
S'station'
p3257
I1
sg3
I1
ssS'thank'
p3258
(dp3259
S'you'
p3260
I1
sg3
I1
ssS"he's"
p3261
(dp3262
g2518
I1
sg3252
I1
sg3
I3
sS'just'
p3263
I1
ssg2310
(dp3264
g3
I1
sS'in'
p3265
I1
ssS'did,'
p3266
(dp3267
S'Morty!'
p3268
I1
sg3
I3
sg841
I1
sS'Morty.'
p3269
I1
ssS'window'
p3270
(dp3271
S'and'
p3272
I1
sg3
I1
ssS'dead.'
p3273
(dp3274
S'Good'
p3275
I1
sg3
I1
ssg1397
(dp3276
g3
I1
sS'invisible.'
p3277
I1
ssg2313
(dp3278
S'and'
p3279
I1
sg3
I1
ssS'happened'
p3280
(dp3281
S'to'
p3282
I1
sS'in'
p3283
I1
sg3
I3
sg697
I1
ssS'toe?!'
p3284
(dp3285
g10
I1
sg3
I1
ssS'3'
p3286
(dp3287
S'has'
p3288
I1
sg3
I1
ssS'killer'
p3289
(dp3290
S'to'
p3291
I1
sg3
I1
ssg1208
(dp3292
g3
I1
sS'Meeseeks'
p3293
I1
ssg396
(dp3294
g3
I1
sS'due'
p3295
I1
ssS'year,'
p3296
(dp3297
S'where'
p3298
I1
sg3
I1
ssS'that...'
p3299
(dp3300
S'poor'
p3301
I1
sg3
I1
ssg156
(dp3302
S'Will'
p3303
I1
sg2483
I1
sg3
I2
ssS'not'
p3304
(dp3305
S'paying'
p3306
I1
sg347
I3
sg904
I1
sS'sure'
p3307
I1
sS'like'
p3308
I1
sS'just'
p3309
I1
sS'that'
p3310
I1
sS'what'
p3311
I1
sg2905
I1
sS'caring'
p3312
I1
sg1869
I1
sS'to'
p3313
I1
sg3
I20
sS'gonna'
p3314
I1
sS'dominated'
p3315
I1
sS'the'
p3316
I2
sS'looking'
p3317
I1
sS'disparaging'
p3318
I1
ssS'now'
p3319
(dp3320
S'we'
p3321
I1
sS'dead'
p3322
I1
sg3
I5
sS"we're"
p3323
I1
sS'you'
p3324
I1
sS'generate'
p3325
I1
ssg2712
(dp3326
S'is'
p3327
I1
sg3
I1
ssS'killed'
p3328
(dp3329
S'him!'
p3330
I1
sg3
I2
sS'in'
p3331
I1
ssg1815
(dp3332
g3
I1
sg2194
I1
ssg576
(dp3333
S'because'
p3334
I1
sg3
I2
sS'means'
p3335
I1
ssS'Ri-iick.'
p3336
(dp3337
S'You'
p3338
I1
sg3
I1
ssS'drop'
p3339
(dp3340
S'the'
p3341
I1
sg3
I2
sS'it'
p3342
I1
ssS'soon.'
p3343
(dp3344
g10
I1
sg3
I1
ssS'next,'
p3345
(dp3346
S'Morty?'
p3347
I1
sg3
I1
ssS'obviously,'
p3348
(dp3349
g3
I1
sS'if'
p3350
I1
ssg1217
(dp3351
S'HIS'
p3352
I3
sg3
I3
ssS'Muchacho,'
p3353
(dp3354
S'does'
p3355
I1
sg3
I1
ssS'fu-u-uck!!"'
p3356
(dp3357
S'[turns'
p3358
I1
sg3
I1
ssS'married'
p3359
(dp3360
S'and'
p3361
I1
sg3
I1
ssS'got.'
p3362
(dp3363
g10
I1
sg3
I1
ssg1571
(dp3364
S'Morty!'
p3365
I1
sg3
I1
ssS'got!'
p3366
(dp3367
g3
I2
sS'Roll'
p3368
I1
sS'Just'
p3369
I1
ssS'some...'
p3370
(dp3371
g3
I1
sg1176
I1
ssS'fires'
p3372
(dp3373
S'with'
p3374
I1
sg3
I1
ssg1224
(dp3375
S'yeah,'
p3376
I1
sg3
I1
ssg1425
(dp3377
S'giant'
p3378
I1
sg3
I1
ssg2048
(dp3379
S'altogether,'
p3380
I1
sg3
I2
sS'at'
p3381
I1
ssS'tea,'
p3382
(dp3383
S'this'
p3384
I1
sg3
I1
ssg860
(dp3385
g10
I1
sg3
I1
ssS'timeline.'
p3386
(dp3387
S'Fun'
p3388
I1
sg3
I1
ssS'space'
p3389
(dp3390
S'not'
p3391
I1
sg3
I3
sg2659
I1
sg2710
I1
ssg1886
(dp3392
g3
I1
sS'Fuck'
p3393
I1
ssg241
(dp3394
g3
I1
sS'[punches'
p3395
I1
ssg1804
(dp3396
g3
I3
sS'for'
p3397
I3
ssg2059
(dp3398
g1039
I1
sg3
I1
ssS'void'
p3399
(dp3400
S'inside'
p3401
I1
sg3
I1
ssS'but...'
p3402
(dp3403
g3
I2
sS"here's"
p3404
I1
sS'in'
p3405
I1
ssg2502
(dp3406
S'remotely,'
p3407
I1
sg3
I1
ssg1604
(dp3408
g706
I1
sg3
I1
ssg2164
(dp3409
g3
I1
sS'around'
p3410
I1
ssg1851
(dp3411
g3
I1
sS'Morty.'
p3412
I1
ssS'Oh...'
p3413
(dp3414
S'shit!'
p3415
I1
sg3
I1
ssS'Earth?'
p3416
(dp3417
g10
I1
sg3
I1
ssS'complicated'
p3418
(dp3419
g3
I1
sS'out'
p3420
I1
ssS'you?!'
p3421
(dp3422
g10
I1
sg3
I1
ssS'Earth.'
p3423
(dp3424
S'You'
p3425
I1
sg3
I2
sS'But'
p3426
I1
ssS'Earth,'
p3427
(dp3428
g242
I1
sg3
I1
ssS'care'
p3429
(dp3430
S'and'
p3431
I1
sg3
I1
ssg1929
(dp3432
g10
I1
sg3
I1
ssg113
(dp3433
g3
I1
sS'everybody.'
p3434
I1
ssS"lookin'"
p3435
(dp3436
g858
I1
sg3
I2
sS'around'
p3437
I1
ssS'thing'
p3438
(dp3439
S'out?!'
p3440
I1
sS"that\xe2\x80\x94y'know\xe2\x80\x94is"
p3441
I1
sg245
I1
sS'as'
p3442
I1
sg3
I5
sS'out,'
p3443
I1
ssg2075
(dp3444
S'of'
p3445
I1
sS'is'
p3446
I2
sg3
I3
ssg1134
(dp3447
g10
I1
sg3
I1
ssg2076
(dp3448
S'and'
p3449
I1
sg3
I1
ssS'star'
p3450
(dp3451
g3
I1
sS'in'
p3452
I1
ssS'think'
p3453
(dp3454
g347
I1
sS'about'
p3455
I1
sS'this'
p3456
I1
sS'of'
p3457
I1
sg107
I1
sg3
I8
sS'they'
p3458
I1
sS"it's"
p3459
I1
sS'you'
p3460
I1
ssS'jumbled'
p3461
(dp3462
S'up,'
p3463
I1
sg3
I1
ssg2077
(dp3464
g1615
I1
sg3
I3
sS'Rick'
p3465
I1
sS'rule'
p3466
I1
ssS'blind'
p3467
(dp3468
g3
I1
sS'man'
p3469
I1
ssg1330
(dp3470
g3450
I1
sg3
I1
ssS"Y-Y-Y'know"
p3471
(dp3472
S'what'
p3473
I1
sg3
I1
ssS"Y'know,"
p3474
(dp3475
g107
I2
sS'sometimes'
p3476
I1
sg3
I3
ssS'equals.'
p3477
(dp3478
g10
I1
sg3
I1
ssS'sock'
p3479
(dp3480
g3
I1
sS'in'
p3481
I1
ssg3139
(dp3482
S'was'
p3483
I1
sg3
I2
sS'she'
p3484
I1
ssg1441
(dp3485
g347
I1
sg3
I1
ssS'irresponsible?!'
p3486
(dp3487
g383
I1
sg3
I1
ssS'title"]'
p3488
(dp3489
S'Buckle'
p3490
I1
sg3
I1
ssS'Meeseeks,'
p3491
(dp3492
S'open'
p3493
I1
sg3
I1
ssg1336
(dp3494
g347
I1
sg3
I1
ssS'sounds'
p3495
(dp3496
g3
I2
sS'are'
p3497
I1
sS'like'
p3498
I1
ssS"I-I'VE"
p3499
(dp3500
g1126
I1
sg3
I1
ssg1666
(dp3501
S'and'
p3502
I1
sS"Jerry's"
p3503
I1
sg3372
I1
sg3
I4
sS'outside]'
p3504
I1
ssS"'em"
p3505
(dp3506
S'and'
p3507
I1
sS'all'
p3508
I1
sS'like'
p3509
I1
sS'for'
p3510
I1
sS'all.'
p3511
I1
sS'up'
p3512
I2
sS'roll!'
p3513
I1
sS'to'
p3514
I1
sg3
I10
sS'in'
p3515
I1
ssg2061
(dp3516
S'of'
p3517
I1
sg3
I1
ssS'little'
p3518
(dp3519
S'friend,'
p3520
I1
sg107
I1
sg1121
I1
sg2756
I1
sS'seahorse'
p3521
I1
sS'creepy'
p3522
I1
sg2450
I1
sg731
I1
sg3
I11
sS'creep,'
p3523
I1
sS'friend'
p3524
I1
sg828
I1
ssg210
(dp3525
S'of'
p3526
I1
sg3
I1
ssg1742
(dp3527
S'and'
p3528
I1
sg3
I1
ssS'[see'
p3529
(dp3530
g3
I1
sS'an'
p3531
I1
ssS'fruit.'
p3532
(dp3533
g10
I1
sg3
I1
ssS'vampire?!'
p3534
(dp3535
g3
I1
sS'Hahaha!'
p3536
I1
ssS'[they'
p3537
(dp3538
S'both'
p3539
I1
sg3
I1
ssS'remotely'
p3540
(dp3541
g3
I1
sS'resembles'
p3542
I1
ssS'anyone'
p3543
(dp3544
g3
I2
sS'here'
p3545
I1
sS'that'
p3546
I1
ssS'2'
p3547
(dp3548
S'of'
p3549
I1
sg3
I1
ssS'favor.'
p3550
(dp3551
S"I'll"
p3552
I1
sg3
I1
ssg1632
(dp3553
g3
I1
sS'in'
p3554
I1
ssS'legally'
p3555
(dp3556
g764
I1
sg3
I1
ssS'white'
p3557
(dp3558
S'cloth'
p3559
I1
sg3
I1
ssg3524
(dp3560
S'Jessica.'
p3561
I1
sg3
I1
ssS'gives'
p3562
(dp3563
S'you'
p3564
I1
sg3
I1
ssS'Eve.'
p3565
(dp3566
g2180
I1
sg3
I1
ssS'Eve,'
p3567
(dp3568
S'and'
p3569
I1
sg3
I1
ssg2974
(dp3570
g107
I1
sS'Haste'
p3571
I1
sg3
I2
ssS'on,'
p3572
(dp3573
S"let's"
p3574
I1
sS'Morty!'
p3575
I1
sg3
I4
sS'huh?'
p3576
I1
sS'Morty,'
p3577
I1
ssg3310
(dp3578
S'wants'
p3579
I1
sS'all'
p3580
I1
sg2282
I1
sS'Christ'
p3581
I1
sS"don't"
p3582
I1
sg2609
I1
sS'compels'
p3583
I1
sS'pop'
p3584
I1
sS'one'
p3585
I1
sS'consider'
p3586
I1
sS'seems'
p3587
I1
sS'a\xe2\x80\x94roll'
p3588
I1
sS'would'
p3589
I2
sS'ass!'
p3590
I1
sg716
I1
sS'movie'
p3591
I1
sS'make'
p3592
I1
sS'ehh-it'
p3593
I1
sS'point,'
p3594
I1
sS'extra'
p3595
I1
sg3540
I1
sS'spread'
p3596
I1
sg3020
I1
sS'new'
p3597
I1
sS'you'
p3598
I1
sS'Beth'
p3599
I1
sS'was'
p3600
I1
sS'is'
p3601
I1
sg3280
I2
sS'ass'
p3602
I2
sS'life'
p3603
I1
sg3041
I1
sg107
I2
sS'becomes'
p3604
I1
sS'if'
p3605
I1
sS"guy's"
p3606
I1
sg3
I52
sS'kinda'
p3607
I1
sS'baby'
p3608
I1
sg304
I1
sg425
I1
sg3053
I1
sS'screwdriver,'
p3609
I1
sS'way.'
p3610
I1
sS'way,'
p3611
I1
sS'guy'
p3612
I1
sg3562
I1
sS'whole'
p3613
I1
sS'called'
p3614
I1
ssS'season'
p3615
(dp3616
S'one!'
p3617
I2
sg3
I2
ssS'on!'
p3618
(dp3619
g10
I2
sg3
I2
ssg3214
(dp3620
g3
I1
sS'why'
p3621
I1
ssS'much.'
p3622
(dp3623
S'We'
p3624
I1
sg3
I1
ssS"d-d-d-don't"
p3625
(dp3626
g3
I1
sS'worry'
p3627
I1
ssS'million?'
p3628
(dp3629
g1073
I1
sg3
I1
ssS'cheers]'
p3630
(dp3631
g10
I1
sg3
I1
ssS'than'
p3632
(dp3633
g107
I1
sS'me!'
p3634
I1
sg3
I4
sS'anybody'
p3635
I1
sS'science,'
p3636
I1
ssg3404
(dp3637
S'your'
p3638
I1
sS'the'
p3639
I1
sg3
I4
sS"what's"
p3640
I1
sg3370
I1
ssS'Sometimes...'
p3641
(dp3642
S"y'know,"
p3643
I1
sg3
I1
ssS'10'
p3644
(dp3645
S'times,'
p3646
I1
sg3
I2
sS'minutes'
p3647
I1
ssS'gotta'
p3648
(dp3649
g236
I1
sS'be'
p3650
I3
sS'help'
p3651
I2
sS'deal'
p3652
I1
sS'get'
p3653
I4
sg758
I1
sS'calm'
p3654
I1
sS'learn'
p3655
I1
sS'roll'
p3656
I1
sS'go'
p3657
I1
sS'pump'
p3658
I1
sg3
I25
sS'take'
p3659
I1
sg3104
I1
sS'ask'
p3660
I1
sS'wake'
p3661
I1
sS'come'
p3662
I1
sg2626
I1
sS'worry'
p3663
I1
sS'treat'
p3664
I1
ssg2362
(dp3665
g3
I1
sS'just'
p3666
I1
ssS'future'
p3667
(dp3668
S'adventures.'
p3669
I1
sg3
I1
ssg2863
(dp3670
S'with'
p3671
I1
sg3
I1
ssS'were'
p3672
(dp3673
g3
I1
sS'jumbled.'
p3674
I1
ssS'and'
p3675
(dp3676
S'all'
p3677
I1
sS'just'
p3678
I1
sS'find'
p3679
I1
sS'then,'
p3680
I1
sS"he's"
p3681
I1
sS'to'
p3682
I1
sg319
I1
sg2218
I1
sS'women'
p3683
I1
sS'hope'
p3684
I1
sS'then'
p3685
I4
sS'his'
p3686
I1
sg2751
I1
sS'get'
p3687
I1
sg101
I1
sS'they'
p3688
I2
sS'not'
p3689
I1
sS"I'm"
p3690
I1
sS'wipe'
p3691
I1
sS'Morty'
p3692
I10
sS'remove'
p3693
I1
sS'Mortys'
p3694
I1
sS'Summers'
p3695
I1
sS"Morty's"
p3696
I1
sS'fucking'
p3697
I1
sS'me,'
p3698
I1
sS'me.'
p3699
I1
sS'some'
p3700
I1
sS'Rick'
p3701
I1
sS'measure'
p3702
I1
sS'our'
p3703
I1
sS'even'
p3704
I1
sS"everything'll"
p3705
I1
sS"there's"
p3706
I1
sS'stupid,'
p3707
I1
sS"they'll"
p3708
I1
sS'we'
p3709
I4
sS'stuff.'
p3710
I1
sg2400
I1
sS'Morty"'
p3711
I2
sS'Morty!'
p3712
I1
sS'sing'
p3713
I1
sS'come'
p3714
I1
sS'th-th-they'
p3715
I1
sS'murdering'
p3716
I1
sS'pop'
p3717
I1
sS'hook'
p3718
I1
sg309
I1
sS'fun.'
p3719
I1
sS'your'
p3720
I2
sS"you're"
p3721
I2
sS'their'
p3722
I1
sS"it's"
p3723
I3
sS'two'
p3724
I1
sS'start'
p3725
I1
sS'applause;'
p3726
I1
sS'Beth'
p3727
I1
sg3025
I1
sg3567
I1
sS'that'
p3728
I1
sg394
I1
sS'impress'
p3729
I1
sg3
I123
sS'multiply.'
p3730
I1
sS'crapped'
p3731
I1
sS'he'
p3732
I1
sS'fun'
p3733
I1
sS'my'
p3734
I1
sg1777
I1
sS'trusting'
p3735
I1
sg1724
I1
sS'if'
p3736
I2
sS'no'
p3737
I1
sS'make'
p3738
I2
sS'holds'
p3739
I1
sS'you'
p3740
I1
sS'then\xe2\x80\x94'
p3741
I1
sg107
I10
sS'most'
p3742
I1
sS'Abraham'
p3743
I1
sS'swallow'
p3744
I1
sg347
I4
sg3204
I1
sg1349
I1
sS'so'
p3745
I1
sS'the'
p3746
I2
sS'fridge]'
p3747
I1
sg1922
I1
ssg1129
(dp3748
S'AGAIN.'
p3749
I1
sg3
I1
ssg903
(dp3750
g347
I1
sg3
I2
sS'just'
p3751
I1
ssS'speaker]'
p3752
(dp3753
g3
I1
sS'"Hey,'
p3754
I1
ssS'fucking...'
p3755
(dp3756
g3
I1
sg805
I1
ssS'say'
p3757
(dp3758
S'about'
p3759
I1
sS'from'
p3760
I1
sS'it'
p3761
I1
sS'60'
p3762
I1
sg3
I6
sg90
I1
sS'the'
p3763
I1
ssg3210
(dp3764
g3
I1
sS'serum'
p3765
I1
ssg1291
(dp3766
S'yourself,'
p3767
I1
sg3
I4
sg689
I2
sS'down.'
p3768
I1
ssg585
(dp3769
g10
I1
sg3
I1
ssg2349
(dp3770
g1024
I1
sg3
I3
sg2206
I1
sS'of'
p3771
I1
ssg2472
(dp3772
S'you'
p3773
I3
sg3
I3
ssS'job,'
p3774
(dp3775
g3
I1
sS'Morty,'
p3776
I1
ssg1296
(dp3777
S'you'
p3778
I1
sS'you,'
p3779
I1
sg3
I2
ssg3167
(dp3780
S'And'
p3781
I1
sg3
I1
ssS'gonna...'
p3782
(dp3783
S'beat'
p3784
I1
sg3
I1
ssg2162
(dp3785
S'control'
p3786
I1
sS'romantic'
p3787
I1
sS'over'
p3788
I1
sS'these,'
p3789
I1
sS'it'
p3790
I2
sS'their'
p3791
I1
sg3
I11
sS'the'
p3792
I1
sS'him'
p3793
I2
sS"'em"
p3794
I1
ssS'Half'
p3795
(dp3796
g347
I1
sg3
I1
ssg1018
(dp3797
S'You'
p3798
I1
sg3
I1
ssg1806
(dp3799
g3
I1
sS'Morty.'
p3800
I1
ssS"She's-she's"
p3801
(dp3802
g2695
I1
sg3
I1
ssS'begin'
p3803
(dp3804
g3
I1
sS'distorting'
p3805
I1
ssS'sure'
p3806
(dp3807
S'thing.'
p3808
I1
sS'you'
p3809
I2
sS"there's"
p3810
I1
sg3
I4
ssS'pain'
p3811
(dp3812
g3
I1
sS'in'
p3813
I1
ssg3741
(dp3814
S'[Reuben'
p3815
I1
sg3
I1
ssS'camouflage.'
p3816
(dp3817
g10
I1
sg3
I1
ssg2334
(dp3818
S'down'
p3819
I1
sg3
I1
ssS'keeps'
p3820
(dp3821
g3
I1
sS'darkening,'
p3822
I1
ssS"know\xe2\x80\x94it's"
p3823
(dp3824
g3
I1
sg1780
I1
ssS'assault'
p3825
(dp3826
g3
I1
sg312
I1
ssg780
(dp3827
S'And'
p3828
I1
sg3
I1
ssS'multiply'
p3829
(dp3830
S'and'
p3831
I1
sg3
I1
ssS'GEARHEAD!'
p3832
(dp3833
g10
I1
sg3
I1
ssS'forever'
p3834
(dp3835
S'and'
p3836
I1
sg347
I1
sg3
I2
ssS'removed'
p3837
(dp3838
S'the'
p3839
I1
sg3
I1
ssg2103
(dp3840
g3
I1
sS'position,'
p3841
I1
ssS'science.'
p3842
(dp3843
g10
I1
sg3
I1
ssS'drive'
p3844
(dp3845
g347
I1
sg3
I1
ssg3636
(dp3846
g3
I1
sS'Morty.'
p3847
I1
ssS'something.'
p3848
(dp3849
g10
I1
sg3
I2
sS'Huh,'
p3850
I1
ssS'killed!'
p3851
(dp3852
g3
I1
sS'If'
p3853
I1
ssS'not.'
p3854
(dp3855
g10
I1
sS'Temporary'
p3856
I1
sg3
I2
ssS'here?"'
p3857
(dp3858
g10
I1
sg3
I1
ssg1655
(dp3859
g107
I1
sg3
I1
ssS'shot'
p3860
(dp3861
g3
I1
sS'in'
p3862
I1
ssS'hairs.'
p3863
(dp3864
S'This'
p3865
I1
sg3
I1
ssg2725
(dp3866
S'you'
p3867
I1
sg3
I2
sS'called'
p3868
I1
ssS'their...'
p3869
(dp3870
g3
I1
sg1630
I1
ssg2150
(dp3871
g347
I1
sg3
I1
ssS'shoe'
p3872
(dp3873
g3
I1
sS'or'
p3874
I1
ssS'infested'
p3875
(dp3876
S'with'
p3877
I2
sg3
I2
ssS'Wh-what'
p3878
(dp3879
S'do'
p3880
I1
sS'about'
p3881
I1
sg3
I2
ssg3368
(dp3882
S'the'
p3883
I1
sS'credits!'
p3884
I1
sg3
I2
ssg2019
(dp3885
S'so'
p3886
I1
sg3
I1
ssS'We'
p3887
(dp3888
S'all'
p3889
I2
sS'just'
p3890
I3
sS'did'
p3891
I2
sS'gotta'
p3892
I3
sS'had'
p3893
I1
sS'beat'
p3894
I2
sS'go'
p3895
I1
sg3
I22
sS'can'
p3896
I3
sS'need'
p3897
I1
sS'got'
p3898
I2
sS'could'
p3899
I1
sS'got\xe2\x80\x94'
p3900
I1
ssS'what,'
p3901
(dp3902
S"I'll"
p3903
I1
sg3
I2
sS'Morty,'
p3904
I1
ssg1194
(dp3905
S"You're"
p3906
I1
sg3
I3
sg1709
I1
sS"It's"
p3907
I1
ssg1801
(dp3908
S'with'
p3909
I1
sg3
I1
ssg2964
(dp3910
g3
I1
sg2582
I1
ssg465
(dp3911
g347
I1
sg3
I2
sS'waves'
p3912
I1
ssS'bomb,'
p3913
(dp3914
g107
I1
sg3
I2
sS'Morty.'
p3915
I1
ssS'murmur]'
p3916
(dp3917
S'Yeah,'
p3918
I1
sg3
I1
ssS'bomb.'
p3919
(dp3920
g10
I1
sg3
I1
ssS'outside'
p3921
(dp3922
S'federal'
p3923
I1
sS'world'
p3924
I1
sg3
I2
ssg2025
(dp3925
S'real'
p3926
I1
sS'removes'
p3927
I1
sg3
I6
sg2486
I1
sS'fehh-friends'
p3928
I1
sS'has'
p3929
I1
sS'pair.'
p3930
I1
ssS'going'
p3931
(dp3932
S'on'
p3933
I1
sg3
I2
sS'home,'
p3934
I1
ssS'black'
p3935
(dp3936
g415
I1
sg3
I1
ssS'clip]'
p3937
(dp3938
g3
I1
sS'So,'
p3939
I1
ssS'one...'
p3940
(dp3941
g3
I1
sg1486
I1
ssS'school!'
p3942
(dp3943
g107
I1
sg3
I1
ssS'get'
p3944
(dp3945
S'is'
p3946
I1
sS'some'
p3947
I1
sS'down'
p3948
I1
sS'canceled'
p3949
I1
sS'in'
p3950
I1
sS'rid'
p3951
I1
sS'your'
p3952
I2
sS'what'
p3953
I1
sS'her'
p3954
I1
sg1694
I1
sS'to'
p3955
I4
sg861
I1
sS'too'
p3956
I1
sS'you'
p3957
I1
sS'embroiled'
p3958
I1
sS'me'
p3959
I1
sS'that.'
p3960
I1
sg3174
I1
sS'it?'
p3961
I1
sg3
I37
sS'more!'
p3962
I1
sS'tranquillized!'
p3963
I1
sg3328
I1
sg347
I5
sg307
I1
sS'for'
p3964
I1
sg3359
I1
sg3851
I1
sS'the'
p3965
I1
sS'out.'
p3966
I1
ssg1341
(dp3967
g3
I2
sS'for'
p3968
I2
ssS'We-'
p3969
(dp3970
S"You're"
p3971
I1
sg3
I1
ssS'spraying'
p3972
(dp3973
g3129
I1
sg3
I1
ssS'RUN!!'
p3974
(dp3975
S'RUN'
p3976
I1
sg3
I2
sg3499
I1
ssS'hedge'
p3977
(dp3978
S'their'
p3979
I1
sg3
I1
ssS'Right'
p3980
(dp3981
g1681
I1
sg3
I1
ssg2497
(dp3982
g3
I1
sS'Morty.'
p3983
I1
ssS'assimilate'
p3984
(dp3985
g347
I2
sg3
I2
ssS'versions'
p3986
(dp3987
S'of'
p3988
I2
sg3
I2
ssg3395
(dp3989
g898
I1
sg3
I1
ssS'turns,'
p3990
(dp3991
S'an\xe2\x80\x94'
p3992
I1
sg3
I1
ssS'morning'
p3993
(dp3994
S'how'
p3995
I1
sg3
I1
ssS'naked'
p3996
(dp3997
S'body!!'
p3998
I1
sg3
I2
sS'redheads,'
p3999
I1
ssS'stupid'
p4000
(dp4001
S'alliance.'
p4002
I1
sS'people'
p4003
I1
sS'government!'
p4004
I1
sg290
I1
sg3
I5
sS'mayonnaise'
p4005
I1
ssS'BFF"'
p4006
(dp4007
S'bracelet]'
p4008
I1
sg3
I1
ssg4008
(dp4009
S'To'
p4010
I1
sg3
I1
ssS'next?'
p4011
(dp4012
g10
I1
sg3
I1
ssg2614
(dp4013
g107
I1
sS'Hitler'
p4014
I1
sg3
I6
sS'are'
p4015
I1
sS'you'
p4016
I1
sS'those'
p4017
I1
sS'can'
p4018
I1
ssS'crazy,'
p4019
(dp4020
S'chaotic'
p4021
I1
sg3
I1
ssS'Ticky'
p4022
(dp4023
g3
I1
sS'Tavi,'
p4024
I1
ssS'sleeves'
p4025
(dp4026
g3
I1
sS'up'
p4027
I1
ssS'whitewash'
p4028
(dp4029
g3
I1
sS'it'
p4030
I1
ssS'rage.'
p4031
(dp4032
g10
I2
sg3
I2
ssS"hasn't"
p4033
(dp4034
S'texted'
p4035
I1
sg3
I1
ssS'fart.'
p4036
(dp4037
g10
I1
sS'As'
p4038
I1
sg3
I2
ssg2794
(dp4039
S'now.'
p4040
I1
sS'apart,'
p4041
I1
sg2535
I1
sg889
I1
sg3
I5
sS'eating'
p4042
I1
ssS'HELL'
p4043
(dp4044
g3
I1
sS'IT'
p4045
I1
ssg1225
(dp4046
S'you'
p4047
I1
sg3
I1
ssS'grandpa.'
p4048
(dp4049
S'And'
p4050
I1
sg3
I1
ssg1305
(dp4051
g3
I1
sS'Here,'
p4052
I1
ssg798
(dp4053
S'and'
p4054
I1
sg3
I1
ssS'That'
p4055
(dp4056
S'makes'
p4057
I1
sg3
I1
ssg3923
(dp4058
g3
I1
sS'jurisdiction?'
p4059
I1
ssg213
(dp4060
g3
I1
sS'Fuck'
p4061
I1
ssg2299
(dp4062
g10
I1
sg3
I1
ssS'gimmick.'
p4063
(dp4064
S"Y'know,"
p4065
I1
sg3
I1
ssg3658
(dp4066
S'the'
p4067
I1
sg3
I1
ssg3707
(dp4068
S'then'
p4069
I1
sg3
I1
ssS'between'
p4070
(dp4071
g3
I1
sS'two'
p4072
I1
ssS'Told'
p4073
(dp4074
S'you,'
p4075
I1
sg3
I1
ssg2314
(dp4076
S'Listen,'
p4077
I1
sg3
I1
ssS'notice'
p4078
(dp4079
S'all'
p4080
I1
sg3
I1
ssS'FOR'
p4081
(dp4082
g3
I1
sg3126
I1
ssg2355
(dp4083
g10
I1
sg3
I1
ssS'unbelievable.'
p4084
(dp4085
S'We'
p4086
I1
sg3
I1
ssS'blame'
p4087
(dp4088
S'me!'
p4089
I1
sg3
I1
ssg392
(dp4090
S'about'
p4091
I1
sg3
I1
ssS'Plus,'
p4092
(dp4093
S'you'
p4094
I1
sg3
I1
ssg3714
(dp4095
S'with.'
p4096
I1
sS'on.'
p4097
I1
sS'on!'
p4098
I1
sS'back'
p4099
I1
sS'to'
p4100
I1
sg3
I9
sS'let'
p4101
I2
sS'with'
p4102
I2
ssg3148
(dp4103
g3
I1
sS'that'
p4104
I1
ssS'"Steve"'
p4105
(dp4106
S'put'
p4107
I1
sg3
I1
ssg563
(dp4108
S'of'
p4109
I1
sg3
I2
sS'planets'
p4110
I1
ssS'died,'
p4111
(dp4112
S'making'
p4113
I1
sg3
I1
ssS'killed\xe2\x80\x94'
p4114
(dp4115
S'You'
p4116
I1
sg3
I1
ssS'officer'
p4117
(dp4118
g3
I1
sg2186
I1
ssS'Aw,'
p4119
(dp4120
S'crap.'
p4121
I1
sg3
I1
ssg3610
(dp4122
S"You're"
p4123
I1
sg3
I1
ssg3611
(dp4124
g3
I1
sS'Morty.'
p4125
I1
ssg1383
(dp4126
S'the'
p4127
I2
sg3
I2
ssg1582
(dp4128
S'do'
p4129
I1
sS'just'
p4130
I2
sS'get'
p4131
I1
sS'cure'
p4132
I1
sg3
I7
sS'hear'
p4133
I1
sg2920
I1
ssS'Guess'
p4134
(dp4135
S'what'
p4136
I1
sg3
I1
ssg3583
(dp4137
S'animals'
p4138
I1
sg3
I1
ssg3717
(dp4139
S'up.'
p4140
I1
sS'my'
p4141
I1
sg3
I2
ssg3762
(dp4142
S'(erhp)'
p4143
I1
sg2628
I1
sg3
I2
ssS'twin'
p4144
(dp4145
g3825
I1
sg3
I1
ssS"couldn't"
p4146
(dp4147
S'make'
p4148
I1
sg3
I1
ssg2188
(dp4149
g10
I1
sg3
I1
ssS'[retching]'
p4150
(dp4151
g144
I1
sg3
I1
ssg3312
(dp4152
S'about'
p4153
I1
sg3
I1
ssS'[picks'
p4154
(dp4155
S'his'
p4156
I1
sg3
I1
ssg1262
(dp4157
S'boy!'
p4158
I1
sg3
I2
sS'boy,'
p4159
I1
ssS'shop.'
p4160
(dp4161
g10
I1
sg3
I1
ssS'Lincoln.'
p4162
(dp4163
g1449
I1
sg3
I1
ssS'But'
p4164
(dp4165
g107
I1
sS"it's"
p4166
I1
sS"let's"
p4167
I1
sg3
I5
sS"here's"
p4168
I1
sS'if'
p4169
I1
ssS'dipshits.'
p4170
(dp4171
g10
I1
sg3
I1
ssg1022
(dp4172
g3
I1
sS'[exits,'
p4173
I1
ssS'peaceful'
p4174
(dp4175
S'and'
p4176
I1
sg3
I1
ssS'Known'
p4177
(dp4178
S'As'
p4179
I1
sg3
I1
ssg3599
(dp4180
S'is'
p4181
I1
sg3
I2
sg2315
I1
ssS'2!'
p4182
(dp4183
S'Chapter'
p4184
I1
sg3
I1
ssg3203
(dp4185
g347
I1
sS'to'
p4186
I3
sS'the'
p4187
I1
sg3
I5
ssS'shopping'
p4188
(dp4189
g3
I1
sS'for'
p4190
I1
ssS'thousand'
p4191
(dp4192
g3
I1
sS'versions'
p4193
I1
ssS'formed'
p4194
(dp4195
S'this'
p4196
I1
sg3
I1
ssg3661
(dp4197
S'me'
p4198
I1
sS'up,'
p4199
I1
sg3
I2
ssS'really...'
p4200
(dp4201
g3222
I1
sg3
I1
ssg2105
(dp4202
g3
I1
sS'locker.'
p4203
I1
ssS'realities'
p4204
(dp4205
g3
I1
sS'in'
p4206
I1
ssg1895
(dp4207
S'sons'
p4208
I1
sS'wire'
p4209
I2
sS'people'
p4210
I1
sS'people.'
p4211
I1
sg380
I1
sS'sex'
p4212
I1
sS'to'
p4213
I2
sS'seeds'
p4214
I2
sg3
I16
sS'are'
p4215
I2
sg217
I1
sS'guys'
p4216
I1
sg4204
I1
ssg1699
(dp4217
S'attention.'
p4218
I1
sg3
I2
sS'70'
p4219
I1
ssg1785
(dp4220
g386
I1
sg3
I1
ssS'myself'
p4221
(dp4222
g3
I1
sS'up'
p4223
I1
ssg3976
(dp4224
g3
I1
sg4081
I1
ssS'Formerly'
p4225
(dp4226
g4177
I1
sg3
I1
ssg4010
(dp4227
g3
I1
sg233
I1
ssS'these'
p4228
(dp4229
S'bodies.'
p4230
I1
sS'things.'
p4231
I1
sS'people'
p4232
I1
sS'game'
p4233
I1
sg3
I7
sS'rich'
p4234
I1
sS'guys'
p4235
I2
ssS'might'
p4236
(dp4237
S'as'
p4238
I1
sg3
I1
ssS'dub!!'
p4239
(dp4240
g3
I1
sS'Ricky'
p4241
I1
ssS'ready,'
p4242
(dp4243
S'Morty!'
p4244
I1
sg3
I1
ssg389
(dp4245
g107
I1
sg3
I1
ssS'care,'
p4246
(dp4247
S'Summer!'
p4248
I1
sg3
I1
ssg2102
(dp4249
g3
I1
sg3820
I1
ssS'life,'
p4250
(dp4251
g3
I2
sS'Morty.'
p4252
I1
sS"'cause"
p4253
I1
ssS'taking'
p4254
(dp4255
S'this'
p4256
I1
sg3
I1
ssS'Game."'
p4257
(dp4258
S'["*not'
p4259
I1
sg3
I1
ssg1431
(dp4260
S'Knock'
p4261
I1
sg10
I2
sS'Roll'
p4262
I1
sg2477
I1
sg3
I7
sS'Your'
p4263
I1
sS'Nice'
p4264
I1
ssS'person!'
p4265
(dp4266
g10
I1
sg3
I1
ssg3490
(dp4267
S'into'
p4268
I1
sg3
I1
ssS'them'
p4269
(dp4270
S'all'
p4271
I1
sg105
I1
sS'first.'
p4272
I1
sS'when'
p4273
I1
sS'head-on,'
p4274
I1
sS'worth,'
p4275
I1
sS'where'
p4276
I1
sg3
I8
sS'with'
p4277
I1
ssS'sleeping'
p4278
(dp4279
g3
I1
sS'in'
p4280
I1
ssg3949
(dp4281
g3
I1
sS'out'
p4282
I1
ssg1891
(dp4283
S'wants'
p4284
I1
sS'with'
p4285
I1
sg3
I3
sg2533
I1
ssg2819
(dp4286
g2405
I1
sS'Morty!'
p4287
I1
sg1751
I1
sg3
I4
sg349
I1
ssg1247
(dp4288
g3
I1
sg3402
I1
ssg2108
(dp4289
S'and'
p4290
I5
sg3
I5
ssg3663
(dp4291
S'about'
p4292
I3
sg3
I3
ssS'different'
p4293
(dp4294
g613
I1
sg3
I1
ssg2112
(dp4295
g10
I1
sg3
I1
ssS'pay'
p4296
(dp4297
g3
I2
sS'for'
p4298
I1
sS'each'
p4299
I1
ssg2113
(dp4300
S'problem.'
p4301
I1
sg3438
I1
sg3
I4
sg4063
I1
sS'character'
p4302
I1
ssS'food'
p4303
(dp4304
S'and'
p4305
I1
sg3
I1
ssg1889
(dp4306
S'and'
p4307
I1
sg3
I1
ssg3128
(dp4308
g3
I2
sS'MORTY,'
p4309
I2
ssg79
(dp4310
S'on'
p4311
I1
sS'anyways,'
p4312
I1
sg3
I2
ssS"They're"
p4313
(dp4314
S'all'
p4315
I1
sS'inside'
p4316
I1
sS'gonna'
p4317
I1
sg3
I6
sg4174
I1
sS'not'
p4318
I1
sS'delicious.'
p4319
I1
ssg668
(dp4320
g3
I1
sS'meter'
p4321
I1
ssg4045
(dp4322
g3
I2
sS'GONNA'
p4323
I1
sS'IS!!'
p4324
I1
ssS'running'
p4325
(dp4326
g3
I2
sS'around'
p4327
I2
ssg1552
(dp4328
g3
I1
sS'in'
p4329
I1
ssS'She...'
p4330
(dp4331
S"she-she-she-she's"
p4332
I1
sg3
I1
ssS'IN'
p4333
(dp4334
g2945
I1
sg3
I1
ssg3744
(dp4335
S'it.'
p4336
I1
sg3
I1
ssg2743
(dp4337
S'retarded.'
p4338
I1
sg3
I1
ssg1314
(dp4339
g3543
I1
sg3
I1
ssg3008
(dp4340
S"doesn't"
p4341
I1
sS'hits'
p4342
I1
sg3
I3
sS'only'
p4343
I1
ssg1297
(dp4344
g2335
I1
sg3
I1
ssS'without'
p4345
(dp4346
S'consequence!'
p4347
I1
sg3
I1
ssS'comes'
p4348
(dp4349
S'back]'
p4350
I1
sg3
I2
sS'bursting'
p4351
I1
ssg877
(dp4352
S'this'
p4353
I1
sS'reality,'
p4354
I1
sg3
I2
ssS'grumpy'
p4355
(dp4356
g3
I1
sS'douche,'
p4357
I1
ssS'gotta\xe2\x80\x94'
p4358
(dp4359
S'you'
p4360
I1
sg3
I2
sS'Calm'
p4361
I1
ssS"I...I'm"
p4362
(dp4363
g3
I1
sS'gonna'
p4364
I1
ssg1819
(dp4365
S'This'
p4366
I1
sg3
I1
ssg1321
(dp4367
S'you'
p4368
I2
sg3
I3
sS'that'
p4369
I1
ssS"You're"
p4370
(dp4371
g347
I7
sS'trapped'
p4372
I1
sS'missing'
p4373
I1
sS'gonna'
p4374
I2
sg4278
I1
sg3
I20
sS'supposed'
p4375
I1
sg3085
I2
sg2321
I1
sS'the'
p4376
I1
sS'my'
p4377
I2
sg922
I1
ssS'am.'
p4378
(dp4379
S"I'm"
p4380
I1
sg3
I1
ssS'being'
p4381
(dp4382
g347
I2
sg3
I4
sg1563
I1
sS'nice'
p4383
I1
ssS'money'
p4384
(dp4385
g3
I1
sS'that'
p4386
I1
ssg2016
(dp4387
S'of'
p4388
I1
sg3
I1
ssg2771
(dp4389
S'[presses'
p4390
I1
sg3
I1
ssg4312
(dp4391
S'we'
p4392
I1
sg3
I1
ssg4332
(dp4393
S'all'
p4394
I1
sg3
I1
ssS'3,000'
p4395
(dp4396
S'of'
p4397
I1
sg3
I1
ssg1190
(dp4398
g107
I1
sg3
I1
ssg2018
(dp4399
S'of'
p4400
I1
sg3
I1
ssg1029
(dp4401
S'us,'
p4402
I1
sg3
I1
ssg1388
(dp4403
S'through'
p4404
I1
sg3
I1
ssg2022
(dp4405
S'go!'
p4406
I1
sg3
I1
ssS"we've"
p4407
(dp4408
g2331
I1
sg3
I1
ssg1803
(dp4409
S'favorite'
p4410
I1
sg3
I1
ssS'seems'
p4411
(dp4412
g3
I2
sS'like'
p4413
I1
sg1495
I1
ssg1844
(dp4414
g3
I1
sS'Morty.'
p4415
I1
ssS'4'
p4416
(dp4417
S'of'
p4418
I1
sg3
I1
ssg3246
(dp4419
g3
I1
sS'for'
p4420
I1
ssS'y-you'
p4421
(dp4422
S'done'
p4423
I1
sS'gotta'
p4424
I1
sg3
I2
ssg2170
(dp4425
g3
I1
sS'up'
p4426
I1
ssS'real'
p4427
(dp4428
g1719
I2
sS'trooper,'
p4429
I1
sS'big'
p4430
I1
sg502
I1
sS'thing'
p4431
I1
sS'bad'
p4432
I1
sg3
I13
sg2223
I1
sg2815
I1
sS'piece'
p4433
I1
sS'true'
p4434
I1
sg3289
I1
sS'quick.'
p4435
I1
ssg1205
(dp4436
S'dishes?'
p4437
I1
sg3
I1
ssS'around'
p4438
(dp4439
S'and'
p4440
I2
sg347
I2
sS'you,'
p4441
I1
sg2932
I1
sS'w-with'
p4442
I1
sS'space'
p4443
I1
sS'this'
p4444
I1
sg3
I14
sg2697
I1
sS'and...'
p4445
I1
sS'the'
p4446
I1
sS'with'
p4447
I2
ssS'M-Morty?'
p4448
(dp4449
g3
I1
sg3969
I1
ssS'the...'
p4450
(dp4451
S'Chapter'
p4452
I1
sg1762
I1
sS'"Rick'
p4453
I1
sg3
I4
sS'contr\xe2\x80\x94'
p4454
I1
ssS'gonna'
p4455
(dp4456
g11
I1
sS'work'
p4457
I1
sS'freak'
p4458
I1
sS'do'
p4459
I1
sS'need'
p4460
I1
sS'puke,'
p4461
I1
sS'have'
p4462
I2
sg522
I1
sS'go'
p4463
I2
sS'scam'
p4464
I1
sS'know,'
p4465
I1
sS'happen'
p4466
I1
sS'accomplish'
p4467
I1
sS'make'
p4468
I2
sg1372
I1
sS'click'
p4469
I1
sS'arrest'
p4470
I1
sS'take'
p4471
I2
sg365
I1
sS'eat...'
p4472
I1
sS'be'
p4473
I7
sS'run'
p4474
I1
sS'get'
p4475
I4
sS'beat'
p4476
I1
sS'modify'
p4477
I1
sS'be\xe2\x80\x94'
p4478
I1
sS'cut'
p4479
I1
sg3
I52
sS'put'
p4480
I1
sg2529
I1
sS'throw'
p4481
I2
sg3339
I1
sS'flip'
p4482
I1
sS'keep'
p4483
I2
sS'try'
p4484
I1
sS'lose'
p4485
I2
sS'happen.'
p4486
I1
ssg2033
(dp4487
g3
I1
sS'Man]'
p4488
I1
ssS'sorry,'
p4489
(dp4490
g3
I2
sS'Morty.'
p4491
I2
ssg2034
(dp4492
S'works?'
p4493
I1
sS'that'
p4494
I1
sS'is'
p4495
I2
sS'peace'
p4496
I1
sS'it'
p4497
I1
sg3
I6
ssS'Morty'
p4498
(dp4499
S'and'
p4500
I1
sg891
I1
sg3834
I2
sS'\xe2\x80\x94'
p4501
I2
sS'Game"!'
p4502
I1
sS'Adventure'
p4503
I2
sS'Puzzle'
p4504
I1
sS'Smith'
p4505
I1
sS'but'
p4506
I1
sg4325
I1
sg3
I18
sS'are'
p4507
I1
sS'has'
p4508
I1
sS'time!'
p4509
I1
sS'waves.'
p4510
I1
sg4117
I1
ssS'"Zelda"'
p4511
(dp4512
S'ones!'
p4513
I1
sg3
I1
ssg2602
(dp4514
S'to'
p4515
I1
sg3
I1
ssS'EARTH!?!'
p4516
(dp4517
g10
I1
sg3
I1
ssg4488
(dp4518
S'You'
p4519
I1
sg3
I1
ssg3656
(dp4520
S'our'
p4521
I1
sg3
I1
ssg2037
(dp4522
g10
I1
sg3
I1
ssg3609
(dp4523
S'Morty!'
p4524
I1
sg3
I2
sS'huh?'
p4525
I1
ssS'fully'
p4526
(dp4527
g3
I1
sg3240
I1
ssS'Jeez,'
p4528
(dp4529
S'you'
p4530
I1
sg3
I1
ssg484
(dp4531
S'Mo\xe2\x80\x94'
p4532
I1
sg3
I1
ssS'Instead,'
p4533
(dp4534
g4407
I1
sg3
I1
ssS'Uh-oh,'
p4535
(dp4536
g3
I1
sg3017
I1
ssS'second?'
p4537
(dp4538
S"There's"
p4539
I1
sg3
I1
ssS'doll'
p4540
(dp4541
S'was'
p4542
I1
sg3
I1
ssg1222
(dp4543
g347
I1
sg3
I1
ssg2463
(dp4544
S"That's-that's"
p4545
I1
sg3
I1
ssS'monstrosity'
p4546
(dp4547
S'approaches'
p4548
I1
sg3
I1
ssS'lobster'
p4549
(dp4550
S'tank!!'
p4551
I1
sg3
I1
ssg1178
(dp4552
S'of'
p4553
I1
sg3
I1
ssS'thinks'
p4554
(dp4555
g3
I1
sS'gonna'
p4556
I1
ssg694
(dp4557
S'to'
p4558
I1
sg3
I1
ssg1884
(dp4559
S'and'
p4560
I1
sg3
I1
ssS'divvy'
p4561
(dp4562
g3
I1
sS'it'
p4563
I1
ssg1842
(dp4564
S'on'
p4565
I1
sS'existing.'
p4566
I1
sg3
I2
ssS'we-we'
p4567
(dp4568
S'all'
p4569
I1
sg3
I1
ssS'yet\xe2\x80\x94opening'
p4570
(dp4571
g4221
I1
sg3
I1
ssg180
(dp4572
S'AM'
p4573
I1
sg3
I1
ssg4452
(dp4574
S'2,'
p4575
I1
sg3547
I1
sg3
I4
sg4182
I1
sg4416
I1
ssS"sh-she's"
p4576
(dp4577
S'probably'
p4578
I1
sg3
I1
ssS'also,'
p4579
(dp4580
g107
I1
sg3
I1
ssS'business'
p4581
(dp4582
S'stuff.'
p4583
I1
sg3
I2
sS'in'
p4584
I1
ssS'seconds'
p4585
(dp4586
S'ago'
p4587
I1
sg3
I1
ssg2258
(dp4588
S'the'
p4589
I1
sg3
I1
ssS'beacons.'
p4590
(dp4591
S'9'
p4592
I1
sg3
I1
ssg3318
(dp4593
S'the'
p4594
I1
sg3
I1
ssg411
(dp4595
g3
I2
sS'defraculator.'
p4596
I2
ssS'hack.'
p4597
(dp4598
g10
I1
sg3
I1
ssg2461
(dp4599
S'into'
p4600
I1
sg3
I1
ssS'terawatts'
p4601
(dp4602
S'of'
p4603
I1
sg3
I1
ssS'Street,'
p4604
(dp4605
S'Morty?'
p4606
I1
sg3
I1
ssg1239
(dp4607
S'peace'
p4608
I1
sg3
I1
ssS'throw'
p4609
(dp4610
S'up,'
p4611
I1
sg3
I3
sS'up'
p4612
I1
sS'in'
p4613
I1
ssS'me-euh\xe2\x80\x94'
p4614
(dp4615
S'let'
p4616
I1
sg3
I1
ssS'on'
p4617
(dp4618
g176
I1
sg347
I3
sg4293
I1
sS'his'
p4619
I1
sS'to'
p4620
I1
sg3857
I1
sS'this'
p4621
I2
sS'getting'
p4622
I1
sg3842
I1
sS'account'
p4623
I1
sg1140
I1
sg1591
I1
sg3
I29
sS'in'
p4624
I1
sS'our'
p4625
I1
sS'the'
p4626
I7
sS'us...'
p4627
I1
sS'my'
p4628
I2
sS'you.'
p4629
I1
sS'Yahoo!'
p4630
I1
ssS'request\xe2\x80\x94'
p4631
(dp4632
S'Mr.'
p4633
I1
sg3
I1
ssg2526
(dp4634
g10
I1
sg3
I1
ssg3457
(dp4635
g3097
I1
sS'all'
p4636
I1
sg3248
I1
sS'Thrones.'
p4637
I1
sS'uh...'
p4638
I1
sS'people'
p4639
I2
sg4381
I1
sS'electricity,'
p4640
I1
sg1097
I1
sS'dead'
p4641
I1
sS'an'
p4642
I1
sS'alien'
p4643
I1
sg3244
I1
sg168
I1
sS'his'
p4644
I1
sS'fun!'
p4645
I1
sg1508
I1
sS'our'
p4646
I1
sS'Christmas'
p4647
I1
sS'you.'
p4648
I1
sg2623
I1
sS'juice'
p4649
I1
sS'yourself,'
p4650
I1
sg8
I1
sS'pah-ah-irates'
p4651
I1
sS'Ricks.'
p4652
I2
sS'getting'
p4653
I1
sS'these,'
p4654
I1
sS'me?!'
p4655
I1
sS'your'
p4656
I8
sS'their'
p4657
I1
sS'idiots'
p4658
I1
sS'wonderful'
p4659
I1
sg961
I1
sS"'em"
p4660
I1
sg3382
I1
sg3555
I1
sS'you'
p4661
I3
sg885
I1
sS'these?'
p4662
I1
sS'me'
p4663
I2
sg659
I1
sS'bitches'
p4664
I1
sS'kinds'
p4665
I1
sS"Morty's"
p4666
I1
sS'that'
p4667
I2
sS'stuff,'
p4668
I1
sg3615
I1
sS"who's"
p4669
I1
sg907
I1
sS'it'
p4670
I1
sS'its'
p4671
I1
sg3
I103
sg1605
I1
sS'cereal,'
p4672
I1
sS'reality,'
p4673
I1
sS'him'
p4674
I1
sS'those'
p4675
I2
sg347
I3
sg3644
I1
sS'robot...'
p4676
I1
sS'the...'
p4677
I2
sS'shit,'
p4678
I1
sS'this'
p4679
I3
sS'shit!'
p4680
I1
sg3986
I1
sS'space'
p4681
I1
sS'us'
p4682
I2
sg947
I1
sS'you,'
p4683
I1
sS'stuff'
p4684
I1
sS'cake'
p4685
I1
sS'the'
p4686
I8
sS'those,'
p4687
I1
sS'my'
p4688
I3
ssS'[rummages'
p4689
(dp4690
g2923
I1
sg3
I2
sg3140
I1
ssg4410
(dp4691
g336
I1
sg3
I1
ssS'Check'
p4692
(dp4693
S'me'
p4694
I1
sg3
I2
sS'it'
p4695
I1
ssg2748
(dp4696
S'This'
p4697
I2
sS'Let'
p4698
I2
sg3
I6
sS'I\xe2\x80\x99m'
p4699
I1
sS'[Several'
p4700
I1
ssS'Scientist'
p4701
(dp4702
g3
I1
sg4225
I1
ssS'stand'
p4703
(dp4704
g1756
I1
sg3
I1
ssg1250
(dp4705
g3
I1
sS'lubba'
p4706
I1
ssS'when\xe2\x80\x94'
p4707
(dp4708
g3
I1
sS'[burps]'
p4709
I1
ssg3108
(dp4710
S"I'm"
p4711
I1
sg3
I4
sS'take'
p4712
I1
sS'huh?'
p4713
I1
sS'Morty.'
p4714
I1
ssS'or'
p4715
(dp4716
g347
I1
sS'on'
p4717
I1
sS'no'
p4718
I1
sS'get'
p4719
I1
sS'anything.'
p4720
I1
sS'anything,'
p4721
I3
sg14
I1
sg3
I12
sS'you'
p4722
I1
sS'the'
p4723
I1
sS'thrift'
p4724
I1
ssg810
(dp4725
S'on'
p4726
I1
sg93
I1
sg3
I2
ssS'm-meeting'
p4727
(dp4728
S'them'
p4729
I1
sg3
I1
ssS'Purge?'
p4730
(dp4731
g10
I1
sg3
I1
ssg2307
(dp4732
g513
I1
sg3
I1
ssg4640
(dp4733
g3
I1
sS'which'
p4734
I1
ssS'image'
p4735
(dp4736
S'of'
p4737
I1
sg3
I1
ssS'harness'
p4738
(dp4739
g3
I1
sS'your'
p4740
I1
ssS'Purge,'
p4741
(dp4742
S'Morty!'
p4743
I1
sg3
I1
ssS'heated'
p4744
(dp4745
S'area,'
p4746
I1
sg3
I1
ssg2729
(dp4747
S'to...'
p4748
I1
sg3
I1
ssS'Oohhhh!!'
p4749
(dp4750
S'Oh,'
p4751
I1
sg3
I1
ssS'your'
p4752
(dp4753
S'pants,'
p4754
I1
sg3863
I1
sS'pants.'
p4755
I1
sg3942
I1
sS'house.'
p4756
I1
sS'dead'
p4757
I1
sS'brain'
p4758
I1
sS'Rick'
p4759
I1
sS'motor'
p4760
I1
sg525
I1
sS'house?'
p4761
I1
sS'seatbelts'
p4762
I1
sg4048
I1
sS'lid'
p4763
I1
sg3518
I1
sS'crap'
p4764
I1
sg1531
I1
sg549
I1
sS'species'
p4765
I1
sS'parents'
p4766
I1
sS'largest'
p4767
I1
sS'closet?!'
p4768
I1
sS'kidneys'
p4769
I1
sS'house,'
p4770
I1
sS'DNA.'
p4771
I1
sg1401
I1
sS'repressed'
p4772
I1
sS'pathetic'
p4773
I1
sg4303
I1
sg1094
I1
sg620
I1
sS'story'
p4774
I1
sg2238
I2
sg2761
I1
sg3
I52
sS'adventure'
p4775
I2
sS'hands'
p4776
I2
sS'problem'
p4777
I1
sS'ding-dong!'
p4778
I1
sS'daughter,'
p4779
I1
sS'sister'
p4780
I1
sg1473
I1
sS'help.'
p4781
I1
sg3046
I1
sS'planet'
p4782
I1
sS"dog's"
p4783
I1
sS'marriage'
p4784
I1
sg1322
I1
sg1636
I1
sS'life,'
p4785
I1
ssg3588
(dp4786
S'the'
p4787
I1
sg3
I1
ssg179
(dp4788
g3
I1
sS'dawg.'
p4789
I1
ssg459
(dp4790
g10
I2
sg3
I2
ssg2956
(dp4791
S'pregnant,'
p4792
I1
sg3211
I1
sg3
I2
ssS'there'
p4793
(dp4794
S'and'
p4795
I1
sS'to'
p4796
I1
sg3
I3
sS'but'
p4797
I1
ssg3590
(dp4798
g3
I1
sS"That's"
p4799
I1
ssg3725
(dp4800
S'worshipping'
p4801
I1
sg3
I1
ssS'Fondlers".'
p4802
(dp4803
g107
I1
sg3
I1
ssS'lot'
p4804
(dp4805
S'of'
p4806
I3
sg3
I4
sS'like'
p4807
I1
ssg4319
(dp4808
g10
I1
sg3
I1
ssg702
(dp4809
S'new'
p4810
I1
sg3
I1
ssg2165
(dp4811
S'to'
p4812
I1
sg3
I1
ssg2145
(dp4813
g10
I3
sS"They're"
p4814
I1
sg3
I5
sS'But'
p4815
I1
ssg2354
(dp4816
S'and'
p4817
I1
sS"you're"
p4818
I1
sS'that'
p4819
I1
sS'Morty?'
p4820
I2
sS'but'
p4821
I1
sS'Morty?!'
p4822
I1
sS'Summer!'
p4823
I1
sg3
I15
sS'crazy?!'
p4824
I1
sg1947
I1
sS'Morty.'
p4825
I4
sS'Morty,'
p4826
I1
ssS'Remember'
p4827
(dp4828
g3
I1
sS'that'
p4829
I1
ssS'buggy'
p4830
(dp4831
S'bumpers!!'
p4832
I1
sg3
I1
ssg274
(dp4833
S'No,'
p4834
I1
sg1426
I1
sg3
I2
ssg4770
(dp4835
g3
I1
sS'eat'
p4836
I1
ssg2096
(dp4837
S'making'
p4838
I1
sg3
I1
ssS'trying'
p4839
(dp4840
S'to'
p4841
I3
sg3
I3
ssg4447
(dp4842
g4395
I1
sS'me!'
p4843
I1
sS'me,'
p4844
I3
sg1661
I1
sS'it'
p4845
I1
sg3869
I1
sS'an'
p4846
I1
sg4144
I1
sS'him]'
p4847
I1
sS'it,'
p4848
I1
sg2990
I1
sS'your'
p4849
I2
sS'heads'
p4850
I1
sS'Jessica'
p4851
I2
sg2429
I1
sS'you'
p4852
I1
sS'it.'
p4853
I1
sS'them'
p4854
I1
sS'you,'
p4855
I3
sS'complementary'
p4856
I1
sS'some'
p4857
I1
sS'wheels?'
p4858
I1
sg3
I43
sg1489
I1
sS'repressed'
p4859
I1
sg347
I2
sg4228
I2
sS'anything,'
p4860
I1
sg3996
I1
sS'miniature'
p4861
I1
sS'every'
p4862
I1
sS'the'
p4863
I2
sg447
I3
ssS"they're"
p4864
(dp4865
S'fine'
p4866
I1
sS'selling'
p4867
I1
sg3
I3
sS'gonna'
p4868
I1
ssg3787
(dp4869
S'advice'
p4870
I1
sg3
I1
ssS'are!'
p4871
(dp4872
g107
I1
sg3
I1
ssg1573
(dp4873
g10
I1
sg3
I1
ssg2374
(dp4874
S'Shit!'
p4875
I1
sg3
I1
ssg4768
(dp4876
S"What's"
p4877
I1
sg3
I1
ssg3157
(dp4878
g3
I1
sS'gonna'
p4879
I1
ssS'staircase]'
p4880
(dp4881
g3
I1
sS"What're"
p4882
I1
ssg470
(dp4883
S"I'm"
p4884
I1
sg3
I1
ssS"enemy's"
p4885
(dp4886
S'radar'
p4887
I1
sg3
I1
ssS'engine'
p4888
(dp4889
S'and'
p4890
I1
sS'repair.'
p4891
I1
sg3
I2
ssg3037
(dp4892
S'little'
p4893
I1
sg3
I2
sg2853
I1
ssS'goody.'
p4894
(dp4895
g10
I1
sg3
I1
ssS'pole'
p4896
(dp4897
S'discovered,'
p4898
I1
sg3
I1
ssg3162
(dp4899
g107
I2
sg3
I2
ssg2347
(dp4900
S'idiot!'
p4901
I2
sS'end!'
p4902
I1
sg927
I1
sS'eye'
p4903
I1
sS'idiot'
p4904
I1
sS'ice'
p4905
I1
sS'alien'
p4906
I2
sS'infinite'
p4907
I1
sS"'80s"
p4908
I1
sS'intergalactic'
p4909
I1
sg3
I15
sg4885
I1
sg265
I1
sS'"Uncle'
p4910
I1
ssg453
(dp4911
g3
I1
sS'Morty.'
p4912
I1
ssg1290
(dp4913
S'many'
p4914
I1
sg3
I1
ssg3195
(dp4915
g107
I1
sS'people.'
p4916
I1
sS'well'
p4917
I1
sS'an'
p4918
I1
sS'much'
p4919
I1
sS'dumb'
p4920
I1
sg777
I1
sg3
I8
sS'good,'
p4921
I1
ssS'at'
p4922
(dp4923
g347
I1
sg133
I1
sS'that'
p4924
I1
sS'me,'
p4925
I1
sS'least'
p4926
I1
sS'Jerry.'
p4927
I1
sg3
I12
sS'Summer,'
p4928
I1
sS'BLIPS'
p4929
I1
sS'the'
p4930
I2
sS'your'
p4931
I1
sS"'em"
p4932
I1
ssS'planets'
p4933
(dp4934
S'with'
p4935
I1
sg3
I2
sS'in'
p4936
I1
ssg1106
(dp4937
g107
I1
sg3
I1
ssg1128
(dp4938
g3
I1
sg2177
I1
ssS'horse'
p4939
(dp4940
S'to'
p4941
I1
sg3
I1
ssg170
(dp4942
g3
I1
sg58
I1
ssg2375
(dp4943
g3
I1
sS'in'
p4944
I1
ssg2516
(dp4945
g3
I1
sS'\xe2\x80\x94'
p4946
I1
ssg575
(dp4947
g10
I1
sg3
I1
ssS'shady.'
p4948
(dp4949
g3
I1
sS'[someone'
p4950
I1
ssS'antenna'
p4951
(dp4952
g3
I1
sg1499
I1
ssg4904
(dp4953
S'not'
p4954
I1
sg3
I1
ssS'swords'
p4955
(dp4956
g3
I1
sS'for'
p4957
I1
ssg4038
(dp4958
S'you'
p4959
I1
sg3
I3
sS'for'
p4960
I1
sS'Rick!'
p4961
I1
ssg2760
(dp4962
S'Look,'
p4963
I1
sg3
I1
ssS'field'
p4964
(dp4965
S'of'
p4966
I1
sg3
I2
sS'until'
p4967
I1
ssg1023
(dp4968
g3
I1
sS'systems'
p4969
I1
ssg2235
(dp4970
S'All'
p4971
I1
sg3
I1
ssg1448
(dp4972
S'all'
p4973
I1
sg33
I1
sS'just'
p4974
I2
sS"don't"
p4975
I3
sS'mean?'
p4976
I1
sS"won't"
p4977
I1
sS'find'
p4978
I2
sS'before'
p4979
I2
sS'up,'
p4980
I4
sS'cried'
p4981
I1
sS'with'
p4982
I1
sS'fix'
p4983
I1
sg54
I1
sS'to'
p4984
I3
sS"haven't"
p4985
I1
sS'do'
p4986
I1
sS'get'
p4987
I4
sS'very'
p4988
I1
sS'gonna'
p4989
I1
sS'killed'
p4990
I1
sS'like'
p4991
I1
sg3984
I2
sg2795
I1
sS'did'
p4992
I2
sS'lose'
p4993
I1
sS'grab'
p4994
I1
sS'people'
p4995
I1
sS'acquired'
p4996
I1
sg3366
I2
sg2303
I1
sS'back'
p4997
I1
sS'really'
p4998
I1
sS'said'
p4999
I1
sS'got'
p5000
I1
sS'be'
p5001
I1
sS'think,'
p5002
I4
sS'powers,'
p5003
I1
sS"doin'"
p5004
I1
sS"haven't,"
p5005
I1
sS'ask'
p5006
I1
sS'went'
p5007
I1
sS'could'
p5008
I2
sS'ding-dongs...'
p5009
I1
sS'keep'
p5010
I1
sS"lookin'"
p5011
I1
sS'became'
p5012
I1
sS'wanna'
p5013
I1
sg3453
I1
sg2952
I1
sS'too.'
p5014
I1
sS'into'
p5015
I1
sS'put'
p5016
I1
sS'know,'
p5017
I3
sS"you're"
p5018
I1
sS'little'
p5019
I1
sS'kidding'
p5020
I1
sS'tell'
p5021
I1
sS'listen'
p5022
I1
sg347
I4
sS'buy'
p5023
I1
sS'that'
p5024
I1
sg4194
I1
sg3
I134
sS'stick'
p5025
I1
sS'what,'
p5026
I1
sS'crapped'
p5027
I1
sS'pull'
p5028
I1
sg4871
I1
sS'gotta'
p5029
I5
sS'up'
p5030
I2
sS'can'
p5031
I4
sg3672
I1
sS'and'
p5032
I2
sS'want'
p5033
I1
sS'give'
p5034
I1
sS'lock'
p5035
I1
sS'say'
p5036
I1
sS'at'
p5037
I1
sS'have'
p5038
I3
sS'in'
p5039
I1
sS"can't."
p5040
I1
sg529
I1
sS'how'
p5041
I1
sg3149
I1
sg3806
I1
sS'hand'
p5042
I1
sS'such'
p5043
I1
sg3185
I5
sS'understand'
p5044
I1
sS'building'
p5045
I2
sS'get,'
p5046
I1
sS'stranded'
p5047
I1
sS'wake'
p5048
I1
sS'gotta\xe2\x80\x94'
p5049
I1
ssg4435
(dp5050
S'W-We'
p5051
I1
sg17
I1
sg3
I2
ssS'poor'
p5052
(dp5053
S'use'
p5054
I1
sg3
I2
sS'girl'
p5055
I1
ssS'Hefflefinger'
p5056
(dp5057
g3
I1
sg4033
I1
ssS'move,'
p5058
(dp5059
g3
I1
sg2754
I1
ssS'me-euuh\xe2\x80\x94'
p5060
(dp5061
S'let'
p5062
I1
sg3
I1
ssS'planet.'
p5063
(dp5064
g10
I1
sS"They're"
p5065
I1
sg3
I2
ssS'a-'
p5066
(dp5067
g5052
I1
sg3
I1
ssS"Lincler's"
p5068
(dp5069
g347
I1
sg3
I1
ssg2123
(dp5070
S'And'
p5071
I1
sg3
I1
ssg2074
(dp5072
S'points'
p5073
I1
sg3
I1
ssg2126
(dp5074
g3
I1
sS'Way'
p5075
I1
ssS'savior,'
p5076
(dp5077
S'was'
p5078
I1
sg3
I1
ssg5045
(dp5079
g347
I2
sg3
I2
ssS'anticipated!'
p5080
(dp5081
g107
I1
sg3
I1
ssS'[K.'
p5082
(dp5083
S'Michael'
p5084
I1
sg3
I1
ssS'[pluck]'
p5085
(dp5086
g10
I1
sg3
I1
ssg1942
(dp5087
S'straight'
p5088
I1
sg3
I1
ssg261
(dp5089
g3
I1
sS"we're"
p5090
I1
ssS'card?!'
p5091
(dp5092
g10
I1
sg3
I1
ssg3542
(dp5093
S'my'
p5094
I1
sg3
I1
ssS'once'
p5095
(dp5096
g3
I1
sS'those'
p5097
I1
ssg2970
(dp5098
g10
I1
sg3
I1
ssg4394
(dp5099
S'over'
p5100
I2
sg3121
I1
sS'kinds'
p5101
I1
sS'limited-edition'
p5102
I1
sS"you're"
p5103
I1
sg2341
I1
sS'that'
p5104
I1
sS'beat'
p5105
I1
sS'right,'
p5106
I1
sS'got'
p5107
I1
sS'you'
p5108
I2
sS'good'
p5109
I1
sS'run'
p5110
I1
sS'around'
p5111
I1
sS'get'
p5112
I1
sg107
I1
sg3
I33
sS'telling'
p5113
I1
sg825
I1
sS'scary'
p5114
I1
sS'of'
p5115
I2
sS'die\xe2\x80\x94alone.'
p5116
I1
sg3667
I1
sS'the'
p5117
I7
sg3461
I1
ssg1138
(dp5118
S'the'
p5119
I1
sg3
I1
ssg1513
(dp5120
g3
I1
sS'Or'
p5121
I1
ssS'son.'
p5122
(dp5123
g10
I1
sg3
I1
ssS'wa\xe2\x80\x94'
p5124
(dp5125
S'[chugs'
p5126
I1
sg3
I1
ssg143
(dp5127
g10
I1
sg3
I1
ssS'disgusting,'
p5128
(dp5129
S'Morty!!'
p5130
I1
sg3
I1
ssg1218
(dp5131
g2647
I1
sg3
I6
sS'it'
p5132
I3
sS'that!'
p5133
I1
sS'these.'
p5134
I1
ssg206
(dp5135
S'and'
p5136
I1
sS'with'
p5137
I1
sg3
I2
ssS'Akbar!'
p5138
(dp5139
g3
I1
sS"We're"
p5140
I1
ssg1394
(dp5141
g3
I1
sS'that'
p5142
I1
ssS'really,'
p5143
(dp5144
S'Morty?'
p5145
I1
sg3
I1
ssg167
(dp5146
g3
I1
sS'or'
p5147
I1
ssS'Person,'
p5148
(dp5149
g3
I1
sS'he'
p5150
I1
ssg3441
(dp5151
g3
I1
sS'that'
p5152
I1
ssg1658
(dp5153
S'help'
p5154
I1
sg20
I1
sS'go'
p5155
I4
sS'find'
p5156
I2
sS'fix'
p5157
I2
sS'do'
p5158
I4
sS'get'
p5159
I3
sg4450
I1
sg1452
I1
sg771
I1
sS'me'
p5160
I1
sg2252
I1
sg3977
I1
sg2255
I1
sS'die'
p5161
I1
sS'marry'
p5162
I1
sg2259
I1
sS'try'
p5163
I1
sS'me!'
p5164
I1
sS'impress.'
p5165
I1
sS'me,'
p5166
I2
sS'frame'
p5167
I1
sS'see'
p5168
I1
sS'our'
p5169
I1
sg174
I1
sg182
I1
sg4561
I1
sS'publish'
p5170
I1
sS'sustain'
p5171
I1
sS'be'
p5172
I7
sg4078
I1
sS'run'
p5173
I1
sg2615
I1
sS'rub'
p5174
I1
sg3416
I1
sS'be\xe2\x80\x94'
p5175
I1
sS'[burps]'
p5176
I1
sS'put'
p5177
I1
sg2912
I1
sg3423
I1
sg3429
I1
sS'both'
p5178
I1
sS'go.'
p5179
I1
sS'keep'
p5180
I3
sg4703
I1
sg955
I1
sS'compromise!'
p5181
I1
sg4738
I1
sS'bitch'
p5182
I1
sg2520
I1
sg3006
I1
sS'love,'
p5183
I1
sS'create'
p5184
I2
sS'un-curse'
p5185
I1
sg4170
I1
sS'call'
p5186
I1
sg1042
I1
sg1036
I1
sS'scary'
p5187
I1
sg3
I126
sg70
I1
sS'purge'
p5188
I2
sS'my'
p5189
I2
sS'scam'
p5190
I1
sg2561
I1
sg494
I1
sg2564
I1
sS'an'
p5191
I2
sg3757
I2
sS'you,'
p5192
I3
sS'have'
p5193
I4
sS'worry'
p5194
I1
sS'sell'
p5195
I1
sS'end'
p5196
I1
sS'normal!'
p5197
I1
sg1389
I4
sS'take'
p5198
I1
sS'draw'
p5199
I1
sg2338
I1
sg3829
I1
sg3182
I1
sg347
I3
sS'get,'
p5200
I1
sS'something.'
p5201
I1
sS'Earth'
p5202
I1
sS'the'
p5203
I7
sg546
I1
ssS'Walmart,'
p5204
(dp5205
S"they're"
p5206
I1
sg3
I1
ssg5171
(dp5207
S'world'
p5208
I1
sg3
I1
ssg4545
(dp5209
S'the'
p5210
I1
sg3
I1
ssg588
(dp5211
g107
I1
sg4727
I1
sg3
I2
ssg3805
(dp5212
g3
I1
sg817
I1
ssS'straightforward'
p5213
(dp5214
S'and'
p5215
I1
sg3
I1
ssg2298
(dp5216
g3
I1
sS'around'
p5217
I1
ssg4988
(dp5218
S'distinctive'
p5219
I1
sg3
I3
sg3622
I1
sg1364
I1
ssS'everyone!'
p5220
(dp5221
g445
I1
sg3
I1
ssS'horror'
p5222
(dp5223
g2211
I1
sg3
I1
ssS'screwdriver'
p5224
(dp5225
S'so'
p5226
I1
sg3
I1
ssg4004
(dp5227
S'And'
p5228
I1
sg3
I2
sg4055
I1
ssg4208
(dp5229
S'of'
p5230
I1
sg3
I1
ssS"th-that's"
p5231
(dp5232
S'real'
p5233
I1
sg3
I1
ssS'sun,'
p5234
(dp5235
g3
I1
sS'so...'
p5236
I1
ssS'got'
p5237
(dp5238
g347
I2
sS'nothing'
p5239
I1
sS'what'
p5240
I1
sS'bored'
p5241
I1
sg672
I1
sS'on'
p5242
I1
sS'jumbled.'
p5243
I1
sS'some'
p5244
I1
sS'it'
p5245
I1
sS'lucky'
p5246
I1
sS'one'
p5247
I1
sS'that\xe2\x80\x94'
p5248
I1
sS'to'
p5249
I2
sg3
I21
sS'back'
p5250
I1
sS'mysterious'
p5251
I1
sS'the'
p5252
I1
sS'giant,'
p5253
I1
sS'its'
p5254
I1
sS'more'
p5255
I1
ssS"I'm"
p5256
(dp5257
S'outta'
p5258
I1
sS'just'
p5259
I4
sS'almost'
p5260
I1
sg2524
I1
sg1103
I1
sg2599
I1
sg3782
I1
sS'pretty'
p5261
I2
sg2386
I2
sS'sure'
p5262
I1
sg1588
I2
sS'gonna'
p5263
I6
sS'part'
p5264
I1
sS'putting'
p5265
I1
sg4489
I1
sg3304
I8
sS'stating'
p5266
I1
sg1745
I1
sg3336
I1
sS'playing'
p5267
I1
sg3
I41
sS'the'
p5268
I2
sg4254
I1
ssS'dis-'
p5269
(dp5270
S'defibulizer?'
p5271
I1
sg3
I1
ssS'booze]'
p5272
(dp5273
g3474
I1
sg3
I1
ssg1896
(dp5274
g10
I1
sg3
I1
ssg460
(dp5275
g10
I1
sg3
I1
ssg1213
(dp5276
S'even'
p5277
I1
sS'be'
p5278
I1
sS'look'
p5279
I1
sS'be,'
p5280
I1
sg4296
I1
sg1930
I1
sS'hate'
p5281
I1
sg3
I9
sS'need'
p5282
I1
sS'come'
p5283
I1
ssg929
(dp5284
g3
I1
sS'leaving'
p5285
I1
ssg3696
(dp5286
g637
I1
sg1084
I1
sS'things!'
p5287
I1
sg3
I3
ssg1221
(dp5288
g3137
I1
sg3
I1
ssS'thread.'
p5289
(dp5290
g10
I1
sg3
I1
ssg1831
(dp5291
g10
I1
sg3
I1
ssS'invention'
p5292
(dp5293
g3
I1
sS'that'
p5294
I1
ssg3536
(dp5295
g10
I1
sg3
I1
ssS'pass'
p5296
(dp5297
S'butter.'
p5298
I1
sg3
I1
ssg4532
(dp5299
S"what's"
p5300
I1
sg3
I1
ssS'what'
p5301
(dp5302
S'do'
p5303
I2
sS'we'
p5304
I1
sS'people'
p5305
I2
sg107
I3
sS'two'
p5306
I1
sS'the'
p5307
I1
sS'this'
p5308
I1
sS'happens.'
p5309
I1
sg3
I19
sS'are'
p5310
I1
sS'you'
p5311
I2
sS'else'
p5312
I1
sS"you're"
p5313
I1
sS'those'
p5314
I1
sS"you've"
p5315
I1
ssg1680
(dp5316
g3
I1
sS'Look'
p5317
I1
ssg1366
(dp5318
g3
I1
sS'Morty.'
p5319
I1
ssS'fucks'
p5320
(dp5321
S'with'
p5322
I1
sg3
I1
ssg2807
(dp5323
g3
I1
sS'disgusted]'
p5324
I1
ssS'version'
p5325
(dp5326
S'of'
p5327
I2
sg3
I2
ssS'destroyed'
p5328
(dp5329
g3
I1
sS'if'
p5330
I1
ssg3523
(dp5331
S'Morty!'
p5332
I1
sg3
I1
ssg3330
(dp5333
S'You'
p5334
I1
sg3
I1
ssg1809
(dp5335
S'of'
p5336
I2
sg3
I2
ssS'arousal]'
p5337
(dp5338
g10
I1
sg3
I1
ssg4477
(dp5339
S'this'
p5340
I1
sg3
I1
ssS'I-I-I-I'
p5341
(dp5342
g3109
I1
sg3
I1
ssg2067
(dp5343
g3
I1
sS'people'
p5344
I1
ssS'beacon'
p5345
(dp5346
S'and'
p5347
I1
sg3
I1
ssS'life.'
p5348
(dp5349
g107
I1
sg3
I1
ssg1258
(dp5350
g5220
I1
sg3
I1
ssg4354
(dp5351
S'and'
p5352
I2
sS"you're"
p5353
I1
sg3
I4
sg3261
I1
ssg2977
(dp5354
g3
I1
sg2830
I1
ssg4724
(dp5355
g3
I1
sS'store'
p5356
I1
ssg2069
(dp5357
S'You'
p5358
I1
sg3
I1
ssg286
(dp5359
g3
I2
sS'but'
p5360
I1
sS'bitch!'
p5361
I1
ssg2916
(dp5362
S'math!'
p5363
I1
sg3
I1
ssS'reason'
p5364
(dp5365
S'to'
p5366
I1
sg3
I1
ssg3522
(dp5367
g2261
I1
sg3
I2
sS'creep...'
p5368
I1
ssg3767
(dp5369
S'and'
p5370
I1
sS'Morty!'
p5371
I1
sg3
I4
sg1765
I1
sS'but'
p5372
I1
ssg4861
(dp5373
g4955
I1
sg3
I1
ssS'yourself.'
p5374
(dp5375
g10
I1
sS"It's"
p5376
I1
sg3
I2
ssS'pick'
p5377
(dp5378
g3
I3
sS'up'
p5379
I2
sS'it'
p5380
I1
ssg2392
(dp5381
S'had'
p5382
I1
sg3
I1
ssg3716
(dp5383
g3
I1
sS'each'
p5384
I1
ssS'fuck"'
p5385
(dp5386
S'is'
p5387
I1
sg3
I1
ssS'home!!'
p5388
(dp5389
g10
I1
sg3
I1
ssS'[takes'
p5390
(dp5391
g3
I1
sg204
I1
ssS'Things'
p5392
(dp5393
g3
I1
sS'just'
p5394
I1
ssS'sheep-Ricks,'
p5395
(dp5396
g2393
I1
sg3
I1
ssg3674
(dp5397
g10
I1
sS'So'
p5398
I1
sg3
I2
ssg5006
(dp5399
g347
I1
sS'the'
p5400
I1
sg3
I4
sS'you'
p5401
I1
sS'yourself\xe2\x80\x94what'
p5402
I1
ssg1259
(dp5403
g3
I1
sS'late,'
p5404
I1
ssS'know.'
p5405
(dp5406
g3
I1
sS'Just'
p5407
I1
ssg5017
(dp5408
S'me'
p5409
I1
sS'like'
p5410
I1
sS'when'
p5411
I1
sS'some'
p5412
I1
sS'Morty!'
p5413
I1
sS"there's"
p5414
I1
sg3
I10
sS'$8'
p5415
I1
sS'which'
p5416
I1
sS'Morty.'
p5417
I1
sS'Morty,'
p5418
I1
ssg1556
(dp5419
g10
I1
sg3
I1
ssg2323
(dp5420
g3
I1
sS'just'
p5421
I1
ssg2285
(dp5422
g3801
I1
sg3
I1
ssg4903
(dp5423
g3
I1
sS'out'
p5424
I1
ssS'proceed'
p5425
(dp5426
S'with'
p5427
I1
sg3
I1
ssg4792
(dp5428
S'then'
p5429
I1
sg3
I1
ssg4929
(dp5430
S'AND'
p5431
I1
sg3
I1
ssS'texting'
p5432
(dp5433
S'on'
p5434
I1
sg3
I1
ssg2088
(dp5435
S'Mortys'
p5436
I1
sS'screw'
p5437
I1
sS'portals'
p5438
I1
sS'of'
p5439
I1
sS'humans'
p5440
I1
sS'items,'
p5441
I1
sg566
I1
sg3
I8
sS'items.'
p5442
I1
ssg3325
(dp5443
S'on'
p5444
I1
sg3
I1
ssg4021
(dp5445
S'place!'
p5446
I1
sg3
I1
ssS'DIE!!!'
p5447
(dp5448
g10
I1
sg3
I1
ssS'one?!'
p5449
(dp5450
S"Y-y-yo-you're"
p5451
I1
sg3
I1
ssg468
(dp5452
S'and'
p5453
I1
sS'my'
p5454
I1
sS'Morty!'
p5455
I3
sg3
I6
sS'Morty,'
p5456
I1
ssS'mysterious'
p5457
(dp5458
g2273
I1
sS'sneakers'
p5459
I1
sg3
I2
ssS'Grandpa'
p5460
(dp5461
g3
I2
sS"isn't"
p5462
I1
sg2884
I1
ssS'wiper'
p5463
(dp5464
g3
I1
sS'fluid'
p5465
I1
ssg3243
(dp5466
g3
I1
sS'Yeah!'
p5467
I1
ssg181
(dp5468
S'control'
p5469
I1
sS'art'
p5470
I1
sg3418
I1
sS'of'
p5471
I1
sS'adventures'
p5472
I1
sg1421
I1
sg3
I7
sS'open'
p5473
I1
ssS'door'
p5474
(dp5475
S'open'
p5476
I1
sg3
I2
sg2996
I1
ssg1270
(dp5477
g2930
I1
sg3
I1
ssg4898
(dp5478
S'baby!'
p5479
I1
sg3
I1
ssS'rapey.'
p5480
(dp5481
S'The'
p5482
I1
sg3
I1
ssg5248
(dp5483
g3
I1
sS'get'
p5484
I1
ssg1991
(dp5485
g107
I2
sg3
I2
ssS'So'
p5486
(dp5487
g347
I1
sS'hey,'
p5488
I1
sS"y'know,"
p5489
I1
sS"who's"
p5490
I1
sS'here'
p5491
I1
sS"let's"
p5492
I1
sg3
I7
sg3319
I1
ssg2168
(dp5493
S'with'
p5494
I2
sg3
I2
ssg4630
(dp5495
g3
I1
sg2703
I1
ssS"Aren't"
p5496
(dp5497
S'these'
p5498
I1
sg3
I1
ssS'shit.'
p5499
(dp5500
g10
I1
sg3
I1
ssg4678
(dp5501
g1952
I1
sg3
I2
sS'Ethan!!'
p5502
I1
ssS'science'
p5503
(dp5504
S'to'
p5505
I1
sS'is'
p5506
I1
sg3
I2
ssg3415
(dp5507
g10
I2
sS'This'
p5508
I1
sg3
I3
ssg5451
(dp5509
g347
I1
sg3
I1
ssS'sucks'
p5510
(dp5511
S'and'
p5512
I1
sg3
I1
ssg1223
(dp5513
g10
I1
sg3
I1
ssg3655
(dp5514
g3
I1
sS'something'
p5515
I1
ssg1458
(dp5516
g3
I1
sS"can't"
p5517
I1
ssS'male'
p5518
(dp5519
S'Gazorpian'
p5520
I1
sg3
I1
ssg4263
(dp5521
S'parents'
p5522
I1
sg2324
I1
sg3
I3
sS'microverse'
p5523
I1
ssg4014
(dp5524
S'and'
p5525
I1
sg412
I1
sg3
I2
ssS'bastard!!'
p5526
(dp5527
S'[removes'
p5528
I1
sg3
I1
ssg5190
(dp5529
S'me'
p5530
I1
sS'the'
p5531
I1
sg3
I2
ssg3503
(dp5532
g4000
I1
sg3
I1
ssS'Just...'
p5533
(dp5534
S'eh-keep'
p5535
I1
sg3
I1
ssS'hours,'
p5536
(dp5537
g3
I1
sS'Morty.'
p5538
I1
ssS'hours.'
p5539
(dp5540
g3
I1
sS'Dreams'
p5541
I1
ssg3257
(dp5542
g3
I1
sS'just'
p5543
I1
ssg2107
(dp5544
g3
I1
sS'Morty.'
p5545
I1
ssg1687
(dp5546
g1004
I1
sg3
I1
ssg4765
(dp5547
g3
I1
sS'eat'
p5548
I1
ssg4461
(dp5549
S'Morty!'
p5550
I1
sg3
I1
ssS'huge'
p5551
(dp5552
g4036
I1
sg3
I1
ssS'adventure...'
p5553
(dp5554
g3031
I1
sg3
I1
ssg4651
(dp5555
S'running'
p5556
I1
sg3
I1
ssg5541
(dp5557
S'move'
p5558
I1
sg3
I1
ssS'tried'
p5559
(dp5560
S'to'
p5561
I1
sg3
I1
ssg2136
(dp5562
S'This'
p5563
I1
sg3
I1
ssg4870
(dp5564
S'from'
p5565
I1
sg3
I1
ssg2466
(dp5566
g107
I1
sg3
I1
ssS'genius.'
p5567
(dp5568
S'The'
p5569
I1
sg3
I1
ssg1853
(dp5570
S'who'
p5571
I1
sg3
I1
ssg4775
(dp5572
g5510
I1
sg3
I4
sg610
I1
sg1641
I1
sg4570
I1
ssg3912
(dp5573
g3
I1
sS'get'
p5574
I1
ssg332
(dp5575
g639
I1
sg3
I1
ssg347
(dp5576
S'dream,'
p5577
I1
sS'show'
p5578
I1
sg2183
I1
sS'genius."'
p5579
I1
sg409
I1
sS'paper'
p5580
I1
sg5385
I1
sg2200
I1
sS'r-ride'
p5581
I1
sS'bunch'
p5582
I4
sg3913
I1
sg3919
I1
sg1412
I1
sS'l-little'
p5583
I1
sg3270
I1
sS'brand-new'
p5584
I1
sg3935
I1
sS'real'
p5585
I5
sS'good'
p5586
I3
sS'little.'
p5587
I2
sS'very'
p5588
I2
sg1939
I2
sg5224
I1
sg3296
I1
sS'pahh-pahhh-pancreas.'
p5589
I1
sg5234
I1
sg207
I3
sg768
I1
sg881
I2
sg1483
I1
sS'stupid'
p5590
I2
sg4526
I1
sg822
I1
sg830
I1
sg833
I1
sg4019
I1
sg3356
I1
sS'smaller'
p5591
I2
sg4537
I1
sS'fair'
p5592
I1
sS'fucking'
p5593
I1
sg5289
I1
sg165
I1
sg2308
I1
sS'licensed'
p5594
I2
sg2692
I1
sS'fart.'
p5595
I1
sS'Rick'
p5596
I3
sS'merry-go-round.'
p5597
I1
sS'special'
p5598
I2
sg3058
I1
sS'screwdriver,'
p5599
I1
sg1542
I1
sS'favor'
p5600
I1
sS'blast.'
p5601
I1
sg2384
I1
sg875
I1
sg1560
I1
sS'drink'
p5602
I1
sS'cube]'
p5603
I1
sg256
I1
sS'broken'
p5604
I1
sg5364
I1
sS'[burps]'
p5605
I1
sS'horrifyingly-looking'
p5606
I1
sS'Morty.'
p5607
I1
sS'Morty,'
p5608
I1
sS'box'
p5609
I1
sS'piece'
p5610
I5
sg4631
I1
sg4597
I1
sS'crotchless'
p5611
I1
sS'lot,'
p5612
I1
sS'threat.'
p5613
I1
sS'whole'
p5614
I4
sg3467
I1
sS'spatially'
p5615
I1
sS'significant'
p5616
I1
sg3479
I1
sg4744
I1
sS'minute.'
p5617
I2
sS'little'
p5618
I3
sS'minute,'
p5619
I1
sg2480
I1
sg5345
I1
sg2987
I1
sg3534
I1
sS'question'
p5620
I1
sS'baby!'
p5621
I1
sS'few'
p5622
I4
sg3550
I1
sg4804
I3
sS'certain'
p5623
I1
sg5457
I1
sg1716
I1
sg3557
I1
sS'hundred'
p5624
I2
sS'vat'
p5625
I1
sS'dance!'
p5626
I2
sS'perplexing'
p5627
I1
sg2898
I1
sg1048
I1
sS'blessing'
p5628
I1
sS'leash.'
p5629
I1
sg1100
I1
sg3
I183
sg1733
I1
sS'baby'
p5630
I1
sg430
I1
sS'car'
p5631
I1
sS'modified'
p5632
I1
sg3055
I1
sS'planet'
p5633
I1
sS'monument'
p5634
I1
sg5518
I1
sS'lame,'
p5635
I1
sS'pin'
p5636
I1
sg1092
I1
sg3112
I1
sg3755
I1
sg2585
I1
sg4939
I1
sg5551
I1
sg3146
I1
sS'collective.'
p5637
I1
sS'picture'
p5638
I1
sg3811
I1
sS'mess'
p5639
I1
sg3816
I1
sg1171
I1
sg1960
I1
sS'beat,'
p5640
I1
sS'sudden.'
p5641
I1
sS'Rick.'
p5642
I1
sS'Rick,'
p5643
I1
sg2656
I1
sS'li-'
p5644
I1
sg1989
I1
sg647
I1
sS'person'
p5645
I1
sS'crazed'
p5646
I1
sg5091
I1
sS'Morty'
p5647
I1
sS'bun'
p5648
I1
sg4355
I1
sg2134
I1
ssS'maybe\xe2\x80\x94'
p5649
(dp5650
S'Could'
p5651
I1
sg3
I1
ssS'dissolving'
p5652
(dp5653
g3
I1
sS'in'
p5654
I1
ssg3131
(dp5655
g3
I1
sS'out'
p5656
I1
ssS'shady'
p5657
(dp5658
g1476
I1
sg3
I1
ssS'mostly,'
p5659
(dp5660
g3
I1
sS"he's"
p5661
I1
ssS'Ahhh...'
p5662
(dp5663
S'This'
p5664
I1
sg3
I1
ssg89
(dp5665
S'you'
p5666
I1
sg3
I1
ssg1324
(dp5667
g3
I1
sS'at'
p5668
I1
ssg801
(dp5669
g3
I1
sS'in'
p5670
I1
ssS'putting'
p5671
(dp5672
g347
I1
sg3
I2
sS'it'
p5673
I1
ssg483
(dp5674
S'inceptors'
p5675
I1
sS'inceptor'
p5676
I1
sg3
I2
ssg2175
(dp5677
S'the'
p5678
I1
sg3
I2
sg3273
I1
ssS"that's"
p5679
(dp5680
S'all'
p5681
I1
sS'exactly'
p5682
I1
sS'why'
p5683
I1
sg3
I8
sS'pretty'
p5684
I1
sS'such'
p5685
I1
sS'retarded.'
p5686
I1
sS'the'
p5687
I2
ssg1185
(dp5688
g347
I1
sg1429
I2
sS'about'
p5689
I1
sS'up,'
p5690
I1
sS'did'
p5691
I1
sS'kind'
p5692
I1
sS'it'
p5693
I1
sg3
I10
sS'the'
p5694
I2
ssg5154
(dp5695
S'me'
p5696
I1
sg4269
I1
sS'me!'
p5697
I1
sg3
I5
sS'with'
p5698
I1
sS'your'
p5699
I1
ssg4975
(dp5700
S'do'
p5701
I1
sg1823
I1
sS'give'
p5702
I3
sS'want'
p5703
I3
sS'get'
p5704
I1
sS'be'
p5705
I1
sg1759
I1
sg3648
I1
sg4028
I1
sg3237
I1
sg4087
I1
sg5405
I1
sS'understand'
p5706
I1
sS'know'
p5707
I1
sS'have'
p5708
I4
sg4246
I1
sg3
I29
sS'you'
p5709
I1
sS'wanna'
p5710
I1
sS'think'
p5711
I1
sS'know,'
p5712
I3
ssS'developed'
p5713
(dp5714
S'intelligent'
p5715
I1
sg3
I1
ssg3001
(dp5716
S'where'
p5717
I1
sS'Garfield,'
p5718
I1
sg3
I3
sS"y'know,"
p5719
I1
ssS'installed'
p5720
(dp5721
S'audio'
p5722
I1
sg3
I1
ssg4887
(dp5723
S'is'
p5724
I1
sg3
I1
ssg5580
(dp5725
S'about'
p5726
I1
sg3
I1
ssg548
(dp5727
g347
I1
sS'it,'
p5728
I1
sg3389
I1
sS'this'
p5729
I1
sg3
I5
sS'fake'
p5730
I1
ssg5134
(dp5731
g10
I1
sg3
I1
ssg1038
(dp5732
S'family.'
p5733
I1
sg3
I3
sS'mouth'
p5734
I1
sS'name'
p5735
I1
ssg5637
(dp5736
g3537
I1
sg3
I1
ssg2245
(dp5737
g3
I2
sS'poofs'
p5738
I1
sS'opens'
p5739
I1
ssg2241
(dp5740
S'and'
p5741
I1
sg3
I2
sS'Morty.'
p5742
I1
ssg1193
(dp5743
g3
I1
sS'disclosure,'
p5744
I1
ssg2929
(dp5745
g4601
I1
sg3
I1
ssg1265
(dp5746
S'to'
p5747
I1
sg3
I1
ssg1211
(dp5748
g3
I1
sS'are'
p5749
I1
ssg1283
(dp5750
g3
I1
sS'shit,'
p5751
I1
ssS'Gary.'
p5752
(dp5753
S'All'
p5754
I1
sg3
I1
ssg1069
(dp5755
S'Somebody'
p5756
I1
sg3
I2
sg5392
I1
ssg4969
(dp5757
g3
I1
sS'for'
p5758
I1
ssg4575
(dp5759
S'"Rick'
p5760
I1
sg3
I1
ssg2989
(dp5761
g10
I1
sg3
I1
ssS'ASS!!'
p5762
(dp5763
g10
I1
sg3
I2
sS'KICK'
p5764
I1
ssS'upping'
p5765
(dp5766
S'their'
p5767
I1
sg3
I1
ssg4985
(dp5768
g1110
I1
sg3
I2
sS'been'
p5769
I1
ssS'ahe-hem...'
p5770
(dp5771
S'Morty'
p5772
I1
sg3
I1
ssS'fool'
p5773
(dp5774
g3
I1
sg4438
I1
ssg4261
(dp5775
S'yourselves'
p5776
I1
sg3
I1
ssS'it,'
p5777
(dp5778
S'baby!'
p5779
I1
sS'Morty!'
p5780
I1
sg3
I5
sS'you'
p5781
I1
sS'Morty.'
p5782
I1
sS'Morty,'
p5783
I1
ssg5586
(dp5784
g2409
I1
sS'about'
p5785
I1
sS'times'
p5786
I1
sg3
I7
sg3774
I1
sg220
I2
sg227
I1
ssg5587
(dp5787
g10
I1
sS'Pedal'
p5788
I1
sg3
I2
ssg1442
(dp5789
g3
I1
sg3823
I1
ssS'filter,'
p5790
(dp5791
S'Morty!'
p5792
I1
sg3
I1
ssg4767
(dp5793
g3
I1
sg1713
I1
ssg5084
(dp5794
g3
I1
sS'opens'
p5795
I1
ssS'it!'
p5796
(dp5797
S'We'
p5798
I1
sg10
I2
sS"It's"
p5799
I1
sS'Hurry,'
p5800
I1
sg3
I8
sS"We're"
p5801
I1
sS'Not'
p5802
I1
sS'You'
p5803
I1
ssg521
(dp5804
g10
I2
sg5496
I1
sg3
I3
ssg5315
(dp5805
S'done,'
p5806
I1
sg3
I1
ssS'great.'
p5807
(dp5808
g10
I2
sS'Now,'
p5809
I1
sS'Who'
p5810
I1
sg3
I4
ssS'great,'
p5811
(dp5812
g3
I1
sS'Morty.'
p5813
I1
ssS'mystery'
p5814
(dp5815
S'this'
p5816
I1
sg3
I1
ssS'fine.'
p5817
(dp5818
S'We'
p5819
I1
sg3
I2
sS"We're"
p5820
I1
ssg3718
(dp5821
g3
I1
sS"'em"
p5822
I1
ssg1214
(dp5823
g3
I1
sS'like'
p5824
I1
ssS'always'
p5825
(dp5826
S'could'
p5827
I1
sS'say'
p5828
I1
sg3
I5
sg987
I1
sS'trying'
p5829
I1
sg2588
I1
ssS'all-'
p5830
(dp5831
g347
I1
sg3
I1
ssS'disagree.'
p5832
(dp5833
g3
I1
sS"Don't"
p5834
I1
ssS'fine!'
p5835
(dp5836
g10
I1
sS'Everything'
p5837
I1
sS"There's"
p5838
I1
sg3
I4
sS'But'
p5839
I1
ssS'did'
p5840
(dp5841
S'it.'
p5842
I2
sS'it'
p5843
I1
sS'it!'
p5844
I3
sg3
I12
sS'this?!'
p5845
I1
sS'the'
p5846
I2
sS'you'
p5847
I3
ssg4662
(dp5848
g10
I1
sg3
I1
ssg2063
(dp5849
S'of'
p5850
I1
sg3
I1
ssS'found'
p5851
(dp5852
g3
I1
sg1873
I1
ssg2361
(dp5853
S'I\xe2\x80\x99m'
p5854
I2
sg3
I2
ssg199
(dp5855
g347
I1
sg4948
I1
sS'Gazorpazorp'
p5856
I1
sg200
I1
sg3
I6
sS'right.'
p5857
I1
sS'he'
p5858
I1
ssg3694
(dp5859
S'and'
p5860
I1
sg3916
I1
sg3
I2
ssg2251
(dp5861
g3
I1
sS'sputters]'
p5862
I1
ssg2044
(dp5863
g3
I1
sS'are'
p5864
I1
ssg1220
(dp5865
S'do'
p5866
I1
sg3
I1
ssS'house'
p5867
(dp5868
S'and...'
p5869
I1
sg1739
I1
sg3
I2
ssg1875
(dp5870
g3
I2
sS'Eurggh...'
p5871
I1
sg1664
I1
ssg4756
(dp5872
g3
I1
sS'Whatever'
p5873
I1
ssg2603
(dp5874
S'how'
p5875
I1
sg3
I1
ssg4324
(dp5876
S'WE-WE'
p5877
I1
sg3
I1
ssg361
(dp5878
S"I'm"
p5879
I1
sg3
I1
ssg154
(dp5880
g10
I1
sg3
I1
ssS'[punching'
p5881
(dp5882
g3495
I1
sg3
I1
ssS'expect'
p5883
(dp5884
S"y'know,"
p5885
I1
sg3
I1
ssS'Squanchy'
p5886
(dp5887
g3
I1
sS'throws'
p5888
I1
ssS"y-you're"
p5889
(dp5890
g347
I1
sg3
I1
ssS'dub'
p5891
(dp5892
g4239
I1
sg3
I1
ssg4761
(dp5893
S'No.'
p5894
I1
sg3
I1
ssS'really'
p5895
(dp5896
S'showing'
p5897
I1
sg641
I1
sg5480
I1
sS'gonna'
p5898
I1
sS'great.'
p5899
I1
sg3343
I1
sS'strange'
p5900
I1
sg3
I9
sS'the'
p5901
I1
sS'think'
p5902
I1
ssg1226
(dp5903
g3901
I1
sg3
I1
ssg2157
(dp5904
S'being'
p5905
I1
sg3
I1
ssg2294
(dp5906
g3
I1
sS'Rick'
p5907
I1
ssS'Game"!'
p5908
(dp5909
g10
I1
sS'Good'
p5910
I1
sg3
I2
ssg1438
(dp5911
g107
I1
sg3
I1
ssS'crowing'
p5912
(dp5913
g1459
I1
sg3
I1
ssg5170
(dp5914
g347
I1
sg3
I1
ssg107
(dp5915
g1774
I1
sS'blew'
p5916
I1
sS'barely'
p5917
I1
sS'just'
p5918
I8
sg516
I4
sg2287
I1
sg298
I1
sS"wanna'"
p5919
I1
sg3837
I1
sg5124
I1
sS'need'
p5920
I6
sS'say'
p5921
I1
sS'have'
p5922
I4
sS'watched'
p5923
I1
sS'mean,'
p5924
I10
sS'love'
p5925
I2
sS'mean.'
p5926
I1
sg1673
I1
sg29
I1
sS'really'
p5927
I1
sS'guess'
p5928
I1
sg1520
I2
sS'built'
p5929
I1
sS'would'
p5930
I1
sg3266
I1
sg5720
I1
sS"don't"
p5931
I10
sg1653
I7
sg1007
I1
sS'won'
p5932
I1
sg2865
I1
sS'got'
p5933
I4
sg3152
I2
sg2493
I3
sg375
I2
sS"haven't"
p5934
I1
sS'take'
p5935
I1
sS'then'
p5936
I1
sS'used'
p5937
I1
sg5559
I1
sg917
I1
sg2881
I1
sS'could'
p5938
I1
sg1968
I1
sg3
I138
sS'know'
p5939
I2
sg2907
I1
sS'THE'
p5940
I1
sS'invented'
p5941
I1
sS'eat'
p5942
I1
sS'noticed.'
p5943
I1
sg5080
I1
sS'made'
p5944
I1
sS'like'
p5945
I2
sS'talking'
p5946
I1
sS'did'
p5947
I2
sS'always'
p5948
I2
sS'gotta'
p5949
I2
sS'drop'
p5950
I1
sS'put'
p5951
I1
sS'have!'
p5952
I1
sS'dunno,'
p5953
I1
sS'will'
p5954
I1
sg1544
I1
sg1355
I1
sg4378
I1
sS'can'
p5955
I3
sg4146
I1
sg1937
I1
sS'mean\xe2\x80\x94'
p5956
I1
sg5851
I1
sS'the'
p5957
I1
sg5832
I1
sS'wanna'
p5958
I1
sS'think'
p5959
I2
sS"can't"
p5960
I4
sS'first'
p5961
I1
ssS'acting'
p5962
(dp5963
g3
I1
sS'like'
p5964
I1
ssg3315
(dp5965
g3
I1
sS'by'
p5966
I1
ssg3708
(dp5967
g2792
I1
sg3
I1
ssS'I-I-I...'
p5968
(dp5969
g3
I1
sS'know'
p5970
I1
ssg3930
(dp5971
g107
I1
sg3
I1
ssg3602
(dp5972
g3
I2
sS"bitchin',"
p5973
I2
ssS'rickandmorty.com.'
p5974
(dp5975
S'[closing'
p5976
I1
sg3
I1
ssg4773
(dp5977
S'family.'
p5978
I1
sg3
I1
ssg1391
(dp5979
g10
I1
sg3
I1
ssS'Morty?'
p5980
(dp5981
g981
I1
sg107
I1
sg3471
I1
sg10
I3
sg3529
I1
sS"There's"
p5982
I1
sg3
I10
sg2267
I1
sS"She's"
p5983
I1
ssS'guess'
p5984
(dp5985
g2509
I1
sS'what'
p5986
I1
sg3
I3
sS"I'm"
p5987
I1
ssg4991
(dp5988
g347
I8
sS'that,'
p5989
I1
sS'we'
p5990
I1
sS'to'
p5991
I1
sS'that'
p5992
I1
sS'that.'
p5993
I1
sS'some'
p5994
I1
sS'that!'
p5995
I1
sS'this.'
p5996
I1
sS'The'
p5997
I1
sS'how'
p5998
I1
sg3
I25
sg2936
I1
sS'another'
p5999
I1
sS'nothing'
p6000
I1
sS'you'
p6001
I1
sg2412
I1
sS'the'
p6002
I2
ssg3711
(dp6003
g1534
I1
sg5553
I1
sg3
I2
ssg155
(dp6004
S"You're"
p6005
I2
sS'What'
p6006
I1
sS"It's"
p6007
I1
sS'[queue'
p6008
I1
sS"We're"
p6009
I2
sS"She's"
p6010
I1
sS'You'
p6011
I1
sS"I'm"
p6012
I2
sS"Y'know..."
p6013
I1
sS'Be'
p6014
I1
sS'We'
p6015
I2
sg4164
I1
sg191
I1
sS'Hurry!!'
p6016
I1
sS"That's"
p6017
I1
sS'Come'
p6018
I1
sS"Here's"
p6019
I1
sg4150
I1
sS'Episode'
p6020
I1
sS'Look'
p6021
I2
sg107
I1
sg10
I14
sS'Th-That'
p6022
I1
sS'Ruh-ick'
p6023
I1
sg3
I53
sg3179
I1
sS'Y-Y-You'
p6024
I1
sS'Called'
p6025
I1
sS'Morty,'
p6026
I2
sS'And'
p6027
I1
sS'Because'
p6028
I1
sS'Just'
p6029
I1
sS'Alright,'
p6030
I1
sg4362
I1
sS'Rick'
p6031
I1
ssg5871
(dp6032
g5341
I1
sg3
I1
ssS'murmur'
p6033
(dp6034
g3
I1
sS'it'
p6035
I1
ssg5016
(dp6036
g347
I2
sS'that'
p6037
I1
sS'it'
p6038
I1
sS'a...'
p6039
I1
sg3
I7
sS'the'
p6040
I2
ssg5606
(dp6041
g3
I1
sS'alien,'
p6042
I1
ssg3915
(dp6043
g4370
I4
sS'What'
p6044
I2
sg1536
I1
sg1783
I1
sS'[checks'
p6045
I1
sS"It's"
p6046
I6
sS'Create'
p6047
I1
sg4134
I1
sS"There's"
p6048
I1
sS'Take'
p6049
I2
sS'You'
p6050
I1
sS"I'm"
p6051
I1
sS'Do'
p6052
I1
sg703
I1
sg1648
I1
sg725
I1
sS"Let's"
p6053
I1
sg10
I18
sg1143
I2
sS'Now'
p6054
I1
sg3158
I1
sg2811
I1
sg580
I1
sS"They're"
p6055
I1
sg107
I5
sg761
I1
sS'This'
p6056
I1
sg3
I70
sS'The'
p6057
I1
sS'And'
p6058
I3
sS'All'
p6059
I1
sg2781
I1
sS"Don't"
p6060
I1
sS'It'
p6061
I1
sg3641
I1
sg4533
I1
sS'If'
p6062
I1
ssg3577
(dp6063
S'and'
p6064
I1
sg2146
I1
sS"don't"
p6065
I1
sg1789
I1
sg5889
I1
sS'if'
p6066
I3
sS"you're"
p6067
I3
sg3258
I1
sS'for'
p6068
I1
sg1690
I1
sS"it's"
p6069
I3
sS"yehh-you're"
p6070
I1
sS"we're"
p6071
I1
sg4421
I2
sS'cal\xe2\x80\x94'
p6072
I1
sS'calm'
p6073
I1
sS'then'
p6074
I1
sS'we'
p6075
I1
sS'that'
p6076
I1
sg107
I3
sS'here'
p6077
I1
sg1965
I1
sg2641
I2
sg3
I52
sS"I'm"
p6078
I1
sg418
I1
sS'you'
p6079
I3
sS'Morty,'
p6080
I1
sS"I'll"
p6081
I1
sS"we'll"
p6082
I1
sS'remember'
p6083
I1
sS'this'
p6084
I2
sS'[writes'
p6085
I1
sS'keep'
p6086
I1
sS'purge'
p6087
I1
sS'yeah,'
p6088
I1
sS'so'
p6089
I1
sS'let'
p6090
I1
sS'grab'
p6091
I1
sg5679
I1
ssg1242
(dp6092
g589
I1
sg3
I1
ssg4218
(dp6093
g10
I1
sg3
I1
ssg4442
(dp6094
g3
I1
sS'Jessica...'
p6095
I1
ssg3080
(dp6096
S'our'
p6097
I1
sg3
I1
ssg3521
(dp6098
S'version'
p6099
I1
sg3
I1
ssg3715
(dp6100
S'use'
p6101
I1
sg3
I1
ssg1249
(dp6102
S'the'
p6103
I1
sg3
I1
ssg5888
(dp6104
S'his'
p6105
I1
sg3
I1
ssS'feel'
p6106
(dp6107
S'all'
p6108
I1
sg3
I1
ssS'number'
p6109
(dp6110
S'of'
p6111
I1
sg3
I1
ssS'fancy'
p6112
(dp6113
S'boardrooms?'
p6114
I1
sg3
I1
ssS'Hurry,'
p6115
(dp6116
S'come'
p6117
I1
sS'Morty!'
p6118
I1
sg3
I2
ssg4423
(dp6119
g5840
I1
sg3
I1
ssg5845
(dp6120
g3
I1
sS'Why'
p6121
I1
ssS'Hurry!'
p6122
(dp6123
g6115
I1
sg3
I1
ssg2085
(dp6124
g5395
I1
sg3
I1
ssg4774
(dp6125
S'about'
p6126
I1
sg3
I1
ssg4850
(dp6127
g3
I1
sS'up'
p6128
I1
ssg2086
(dp6129
g3
I1
sS'They'
p6130
I1
ssg5978
(dp6131
g10
I1
sS'Now'
p6132
I1
sg3
I2
ssg463
(dp6133
g333
I1
sg3
I1
ssg2500
(dp6134
S'to'
p6135
I1
sg3
I1
ssg4926
(dp6136
g2700
I1
sg3
I1
ssg4659
(dp6137
g3
I1
sS'things,'
p6138
I1
ssg4510
(dp6139
g10
I1
sg3
I1
ssg5624
(dp6140
S'times!'
p6141
I1
sg3
I2
sS'days!'
p6142
I1
ssg5356
(dp6143
S'in'
p6144
I1
sg3
I2
sS'that'
p6145
I1
ssg1434
(dp6146
g5301
I1
sg3
I1
ssg4272
(dp6147
g10
I1
sg4528
I1
sg3
I2
ssg4372
(dp6148
g3
I1
sS'in'
p6149
I1
ssg4121
(dp6150
S'Hey,'
p6151
I1
sg3
I1
ssg4357
(dp6152
S'Rick?'
p6153
I1
sg3
I1
ssS'part'
p6154
(dp6155
S'of'
p6156
I3
sg3
I3
ssg5415
(dp6157
g3628
I1
sg3
I1
ssS'off'
p6158
(dp6159
S'and'
p6160
I1
sS'my'
p6161
I1
sS'the'
p6162
I1
sg3
I4
sS'your'
p6163
I1
ssg1363
(dp6164
g3
I1
sg4827
I1
ssg5594
(dp6165
S'game,'
p6166
I2
sg3
I2
ssg5692
(dp6167
S'of'
p6168
I2
sg3
I2
ssg2098
(dp6169
g3931
I1
sg3
I1
ssS'gotten'
p6170
(dp6171
S'into'
p6172
I1
sg3
I1
ssg4504
(dp6173
g3
I1
sS'Adventure'
p6174
I1
ssS"answer's"
p6175
(dp6176
S'"yes,'
p6177
I1
sg3
I1
ssg1849
(dp6178
S'This'
p6179
I1
sg3
I1
ssS'tops.'
p6180
(dp6181
S'Now'
p6182
I1
sg3
I1
ssg705
(dp6183
S'is'
p6184
I1
sg3
I2
sS'or'
p6185
I1
ssg4375
(dp6186
S'to'
p6187
I2
sg3
I2
ssg2297
(dp6188
g3
I1
sS"That's"
p6189
I1
ssg2619
(dp6190
g3
I1
sg4535
I1
ssS'Reehh-al'
p6191
(dp6192
g3
I1
sg5213
I1
ssg5022
(dp6193
S'to'
p6194
I2
sg3
I2
ssg583
(dp6195
g3
I1
sS'Morty.'
p6196
I1
ssg3189
(dp6197
S'there,'
p6198
I1
sg4793
I1
sg3
I3
sS'here.'
p6199
I1
ssS'huh,'
p6200
(dp6201
g4448
I1
sg1618
I1
sS'Morty?'
p6202
I2
sg3
I4
ssS'gonna-'
p6203
(dp6204
S'do'
p6205
I1
sg3
I1
ssg4950
(dp6206
g1461
I1
sg3
I1
ssg4649
(dp6207
S'to'
p6208
I1
sg3
I1
ssg4867
(dp6209
g3
I1
sg1020
I1
ssg4525
(dp6210
g10
I1
sS"I'm"
p6211
I1
sg3
I5
sg2917
I1
sS"That's"
p6212
I2
ssg4824
(dp6213
g10
I1
sg3
I1
ssg4627
(dp6214
g3832
I1
sg3
I1
ssg1295
(dp6215
S'the'
p6216
I1
sg3
I1
ssg4763
(dp6217
g678
I1
sg3
I1
ssg1941
(dp6218
g3
I1
sS"we're"
p6219
I1
ssg1475
(dp6220
g10
I1
sg3
I1
ssg5929
(dp6221
g3
I1
sg1826
I1
ssg938
(dp6222
S'and'
p6223
I1
sg3
I1
ssg2311
(dp6224
S'and'
p6225
I1
sg3
I1
ssg2860
(dp6226
S'and'
p6227
I1
sg3
I1
ssS'also'
p6228
(dp6229
S'did'
p6230
I1
sS'happen'
p6231
I1
sg3
I4
sS'all'
p6232
I1
sS'gonna'
p6233
I1
ssg994
(dp6234
S'the'
p6235
I1
sg3
I1
ssg6072
(dp6236
S'You'
p6237
I1
sg3
I1
ssS'me."'
p6238
(dp6239
g10
I1
sg3
I1
ssg937
(dp6240
g3
I1
sS'KICK'
p6241
I1
ssg3068
(dp6242
g3
I1
sS'Nintendo'
p6243
I1
ssS'BANDING'
p6244
(dp6245
g3
I1
sS'TOGETHER'
p6246
I1
ssS'window]'
p6247
(dp6248
g4119
I1
sg3
I1
ssS'9/11s,'
p6249
(dp6250
S'and'
p6251
I1
sg3
I1
ssS'WHAT'
p6252
(dp6253
S'THE'
p6254
I1
sg3
I1
ssS'most'
p6255
(dp6256
S'of'
p6257
I2
sg3
I4
sS'Ricks'
p6258
I1
sS'timelines'
p6259
I1
ssg2357
(dp6260
g3
I1
sg5536
I1
ssg5616
(dp6261
g1933
I1
sg3
I1
ssg4219
(dp6262
g1081
I1
sg3
I1
ssS'nothing'
p6263
(dp6264
S'to'
p6265
I1
sg5657
I1
sg3
I3
sS'but'
p6266
I1
ssg1309
(dp6267
S'developers'
p6268
I1
sg4730
I1
sg895
I1
sS'universe'
p6269
I1
sg1001
I1
sg6175
I1
sg1992
I1
sg3921
I1
sg4701
I1
sg3
I15
sg4741
I1
sg2270
I1
sg569
I1
sS'first'
p6270
I1
sg1511
I1
sS'Citadel'
p6271
I1
ssS'hands-on'
p6272
(dp6273
g4888
I1
sg3
I1
ssg6025
(dp6274
S'the'
p6275
I1
sg3
I1
ssg211
(dp6276
g10
I1
sg3
I1
ssg5644
(dp6277
S"you're"
p6278
I1
sg3
I1
ssg1393
(dp6279
S'to'
p6280
I1
sg3
I1
ssg3476
(dp6281
S"it's"
p6282
I1
sg3
I1
ssg5953
(dp6283
g3
I1
sS'it'
p6284
I1
ssS'[everyone'
p6285
(dp6286
g3630
I1
sg935
I1
sg3
I2
ssS'yeah.'
p6287
(dp6288
g10
I1
sg3
I1
ssg2129
(dp6289
S'this'
p6290
I1
sg3
I1
ssS'yeah,'
p6291
(dp6292
S'and'
p6293
I1
sS"I'll"
p6294
I1
sS're\xe2\x80\x94'
p6295
I1
sS'like'
p6296
I1
sS'fine!'
p6297
I1
sg6287
I1
sS'yeah,'
p6298
I2
sg3
I10
sS'you'
p6299
I1
sS'Morty,'
p6300
I1
ssg4390
(dp6301
g3
I1
sS'button]'
p6302
I1
ssg3754
(dp6303
g3028
I1
sg2369
I1
sg3
I2
ssg4801
(dp6304
S'us?'
p6305
I1
sg3
I1
ssg1320
(dp6306
S'got'
p6307
I1
sg3
I1
ssg3747
(dp6308
g3
I1
sS'Sorry,'
p6309
I1
ssg1152
(dp6310
S'you'
p6311
I1
sg3
I1
ssg3388
(dp6312
g2197
I1
sg3
I1
ssg5535
(dp6313
g3
I1
sS'your'
p6314
I1
ssg752
(dp6315
g3
I1
sg3227
I1
ssg4866
(dp6316
S'with'
p6317
I1
sg3
I1
ssg5156
(dp6318
g347
I1
sS'me'
p6319
I2
sS'people'
p6320
I1
sS'one'
p6321
I1
sg3
I6
sS'another'
p6322
I1
ssg5253
(dp6323
S'telepathic'
p6324
I1
sg3
I1
ssS'super-leader'
p6325
(dp6326
g3
I1
sS'by'
p6327
I1
ssg3378
(dp6328
g3
I1
sS'testicle'
p6329
I1
ssg4096
(dp6330
S"It's"
p6331
I1
sg3
I1
ssS'enemy,'
p6332
(dp6333
S'Morty!'
p6334
I1
sg3
I1
ssg251
(dp6335
g3
I1
sS'Rick'
p6336
I1
ssg1577
(dp6337
S'is'
p6338
I1
sg3
I1
ssg4658
(dp6339
g3
I1
sS'that'
p6340
I1
ssg1587
(dp6341
S'me,'
p6342
I1
sg3
I1
ssg5261
(dp6343
S'sexy.'
p6344
I1
sg2558
I1
sg3
I4
sg1030
I1
sS'clear,'
p6345
I1
ssS'his'
p6346
(dp6347
g3284
I1
sg6247
I1
sg2789
I1
sg1160
I1
sg1925
I2
sS'business'
p6348
I1
sg3
I11
sg4951
I1
sg1557
I1
sS'"Rick\'s'
p6349
I1
sg1415
I1
ssg3254
(dp6350
g10
I1
sg3
I1
ssS'Boom!!'
p6351
(dp6352
S'Season'
p6353
I1
sg3
I1
ssg2356
(dp6354
S'and'
p6355
I1
sg3
I1
ssg3793
(dp6356
g347
I1
sS'run'
p6357
I1
sS'for'
p6358
I1
sS'shoving'
p6359
I1
sg3
I5
sS'out'
p6360
I1
ssg4901
(dp6361
S'All'
p6362
I1
sg3
I2
sg2688
I1
ssg2824
(dp6363
S'you'
p6364
I1
sg3
I1
ssg3693
(dp6365
g3
I1
sS'one'
p6366
I1
ssg819
(dp6367
g5460
I1
sg3
I1
ssg2576
(dp6368
g3
I2
sS'Your'
p6369
I1
sS"That's"
p6370
I1
ssg5470
(dp6371
g3
I1
sS'than'
p6372
I1
ssg5165
(dp6373
S'Yeah,'
p6374
I1
sg3
I1
ssg6047
(dp6375
g347
I1
sg3
I1
ssg2046
(dp6376
S'robot.'
p6377
I1
sg3
I2
sS'robots'
p6378
I1
ssS'see'
p6379
(dp6380
S'me'
p6381
I1
sS'what'
p6382
I1
sS'that'
p6383
I1
sS'watch'
p6384
I2
sg400
I1
sg3
I6
ssg4920
(dp6385
S'as'
p6386
I1
sg3
I1
ssg5864
(dp6387
S'you,'
p6388
I1
sg1344
I1
sS'heard]'
p6389
I1
sg3477
I1
sg5825
I1
sS'inside'
p6390
I1
sS'gonna'
p6391
I2
sS'looking'
p6392
I1
sS'these'
p6393
I2
sS'outside'
p6394
I1
sg3
I20
sS'at'
p6395
I1
sS'bleeding...'
p6396
I1
sS'flerbos.'
p6397
I1
sS'the'
p6398
I2
sS'my'
p6399
I1
sS'having'
p6400
I1
sS'really'
p6401
I1
ssg3277
(dp6402
g4154
I1
sg3
I1
ssg2892
(dp6403
g347
I1
sg3
I1
ssg504
(dp6404
g3
I1
sS'By'
p6405
I1
ssS'arm'
p6406
(dp6407
g3
I1
sg838
I1
ssS'achieved."'
p6408
(dp6409
g2720
I1
sg3
I1
ssg4486
(dp6410
S'Alien'
p6411
I1
sg3
I1
ssS'GET'
p6412
(dp6413
g3
I1
sS'HERE,'
p6414
I1
ssg3591
(dp6415
S'you'
p6416
I1
sg3
I2
sS'but'
p6417
I1
ssS'please'
p6418
(dp6419
g3
I1
sg5425
I1
ssg2605
(dp6420
g3
I1
sS'Get'
p6421
I1
ssg5581
(dp6422
S'of'
p6423
I1
sg3
I1
ssS'won'
p6424
(dp6425
S'the'
p6426
I2
sg3
I2
ssg270
(dp6427
g3
I1
sS'Rick'
p6428
I1
ssg2640
(dp6429
g3
I2
sS'GONNA'
p6430
I2
ssg271
(dp6431
S'Every'
p6432
I1
sg3
I1
ssg6177
(dp6433
S'you'
p6434
I1
sg3
I1
ssg4578
(dp6435
g6263
I1
sg3
I2
sg2653
I1
ssg1614
(dp6436
g3
I1
sS'for'
p6437
I1
ssg5973
(dp6438
S'let'
p6439
I2
sg3
I2
ssS'but-but,'
p6440
(dp6441
g3
I1
sg2888
I1
ssg4373
(dp6442
S'the'
p6443
I1
sg3
I1
ssg5651
(dp6444
S'you'
p6445
I1
sg3
I1
ssg5603
(dp6446
S'this'
p6447
I1
sg3
I1
ssg2420
(dp6448
g10
I1
sg3
I1
ssg681
(dp6449
g3
I1
sg141
I1
ssg5402
(dp6450
g3
I1
sS'are'
p6451
I1
ssS"Someone's"
p6452
(dp6453
g3
I1
sS'gonna'
p6454
I1
ssg6142
(dp6455
g3
I1
sS'Rick'
p6456
I1
ssS'AND'
p6457
(dp6458
g2934
I1
sg3
I2
sS'LISTEN'
p6459
I1
ssg5178
(dp6460
S'die'
p6461
I1
sg3
I2
sS'exchange'
p6462
I1
ssg1898
(dp6463
S'week'
p6464
I1
sg3
I1
ssg5917
(dp6465
g3
I1
sS'have'
p6466
I1
ssg5009
(dp6467
g3
I1
sg4689
I1
ssg5611
(dp6468
g1013
I1
sg3
I1
ssS'ME!!'
p6469
(dp6470
S"It's"
p6471
I1
sg3
I1
ssg1538
(dp6472
g3
I1
sg1624
I1
ssg5012
(dp6473
g347
I1
sg3
I1
ssg3048
(dp6474
g3
I1
sS'until'
p6475
I1
ssg5613
(dp6476
g2910
I1
sg3
I1
ssg4687
(dp6477
g107
I1
sg3
I1
ssg5614
(dp6478
g3255
I1
sg2395
I1
sg3
I8
sS'thing,'
p6479
I1
sS'new'
p6480
I1
sS'fresh'
p6481
I2
sS'bunch'
p6482
I1
sg1987
I1
ssg3884
(dp6483
S'This'
p6484
I1
sS'Game'
p6485
I1
sg3
I3
sS'Just'
p6486
I1
ssS'distress'
p6487
(dp6488
g4590
I1
sg3
I1
ssg2078
(dp6489
S'of'
p6490
I1
sg3
I1
ssg558
(dp6491
S'and'
p6492
I1
sg3
I1
ssg5919
(dp6493
S'make'
p6494
I1
sg3
I1
ssg5181
(dp6495
g3
I1
sg2570
I1
ssS'["trail'
p6496
(dp6497
g3
I1
sS'off,'
p6498
I1
ssg4645
(dp6499
S'You'
p6500
I1
sg3
I1
ssg5075
(dp6501
g3
I1
sS'are'
p6502
I1
ssg5361
(dp6503
g6452
I1
sg3
I1
ssg3719
(dp6504
g10
I1
sg3
I1
ssg1260
(dp6505
S'this'
p6506
I1
sg3
I1
ssg5612
(dp6507
S'and'
p6508
I1
sg3
I1
ssg2454
(dp6509
S'and'
p6510
I1
sS'Morty!'
p6511
I1
sS'just...'
p6512
I1
sg3
I4
sS"it's,"
p6513
I1
ssS'there.'
p6514
(dp6515
g107
I1
sg3878
I1
sg3
I2
ssg2870
(dp6516
S'OF'
p6517
I1
sg3
I1
ssg1954
(dp6518
g1971
I1
sS'wire'
p6519
I1
sg3
I2
ssg5184
(dp6520
g347
I2
sg3
I2
ssg3295
(dp6521
S'to'
p6522
I1
sg3
I1
ssg2089
(dp6523
g3
I1
sg644
I1
ssS'kisses,'
p6524
(dp6525
g3
I1
sg5765
I1
ssg6309
(dp6526
g6418
I1
sg3
I1
ssg1533
(dp6527
S'Yeah!!'
p6528
I1
sg3
I1
ssg5626
(dp6529
g1339
I2
sg3
I2
ssS'wuh-world'
p6530
(dp6531
S'is'
p6532
I1
sg3
I1
ssS'3:'
p6533
(dp6534
g3
I1
sS'Rick'
p6535
I1
ssS"what's"
p6536
(dp6537
S'important,'
p6538
I1
sS'gonna'
p6539
I1
sg56
I1
sg3
I5
sS'the'
p6540
I1
sg4011
I1
ssg2093
(dp6541
g347
I1
sg3
I1
ssg5629
(dp6542
g10
I1
sg3
I1
ssg2094
(dp6543
g433
I1
sg3
I1
ssg152
(dp6544
g10
I1
sg3
I1
ssS'lives'
p6545
(dp6546
S'and'
p6547
I1
sg3
I1
ssg6010
(dp6548
S'all'
p6549
I1
sg3
I2
sS'an'
p6550
I1
ssg2649
(dp6551
g107
I1
sg3
I2
sS'[Goldenfold'
p6552
I1
ssg3999
(dp6553
S'and'
p6554
I1
sg3
I1
ssg840
(dp6555
g1944
I1
sg3
I1
ssS'cake,'
p6556
(dp6557
g3
I1
sS'Morty.'
p6558
I1
ssS'cake.'
p6559
(dp6560
g10
I1
sg3
I2
sS'Here,'
p6561
I1
ssS'look'
p6562
(dp6563
g3
I3
sg4922
I2
sS'like'
p6564
I1
ssg390
(dp6565
g107
I1
sS'sometimes,'
p6566
I1
sg3
I3
sS'then'
p6567
I1
ssg5088
(dp6568
g3
I1
sS'up'
p6569
I1
ssg480
(dp6570
g3
I1
sS'Morty.'
p6571
I1
ssg5309
(dp6572
S"I'm"
p6573
I1
sg3
I1
ssg5675
(dp6574
S'to'
p6575
I1
sg3
I1
ssg2101
(dp6576
g5652
I1
sg3
I1
ssg3733
(dp6577
g3
I1
sS'it'
p6578
I1
ssS"Jessica's"
p6579
(dp6580
g3
I1
sS'gonna'
p6581
I1
ssg1285
(dp6582
S'THE'
p6583
I1
sg3
I2
sS'UP'
p6584
I1
ssg2495
(dp6585
S'to'
p6586
I1
sg3
I1
ssg3593
(dp6587
g3
I1
sS'just'
p6588
I1
ssS'get\xe2\x80\x94'
p6589
(dp6590
S'made'
p6591
I1
sg3
I1
ssg1245
(dp6592
g403
I1
sg3
I1
ssg5520
(dp6593
S'was'
p6594
I1
sg3
I1
ssg1246
(dp6595
S"you're"
p6596
I1
sg3
I1
ssg3951
(dp6597
S'of'
p6598
I1
sg3
I1
ssg2110
(dp6599
S'and'
p6600
I1
sg3
I1
ssg6411
(dp6601
g48
I1
sg3
I1
ssS'LITTLE'
p6602
(dp6603
g3
I1
sS'SON'
p6604
I1
ssS'world?!'
p6605
(dp6606
S'All'
p6607
I1
sg3
I1
ssg5197
(dp6608
g107
I1
sg3
I1
ssg6345
(dp6609
S'no?'
p6610
I1
sg3
I1
ssS'So,'
p6611
(dp6612
S"what's"
p6613
I1
sg3
I2
sS'we'
p6614
I1
ssS'away!'
p6615
(dp6616
g5082
I1
sg3
I1
ssg2858
(dp6617
g3
I1
sS'for'
p6618
I1
ssg4503
(dp6619
g4257
I1
sg1517
I1
sg3
I3
sg5908
I1
ssg4592
(dp6620
g3
I1
sS'out'
p6621
I1
ssg4771
(dp6622
g10
I1
sg3
I1
ssg5195
(dp6623
g2246
I1
sg3
I1
ssg5937
(dp6624
S'this'
p6625
I1
sS'my'
p6626
I1
sg3
I2
ssg4002
(dp6627
S'You'
p6628
I1
sg3
I1
ssg2119
(dp6629
S'on'
p6630
I1
sg3
I1
ssS'GOTTA'
p6631
(dp6632
g3
I1
sg6412
I1
ssg1677
(dp6633
S'you'
p6634
I1
sg3
I1
ssg6022
(dp6635
g3
I1
sS'movie,'
p6636
I1
ssg966
(dp6637
g10
I1
sg3
I1
ssS'YOU'
p6638
(dp6639
g580
I2
sg6602
I1
sg3
I3
ssg4779
(dp6640
S'who'
p6641
I1
sg3
I1
ssg2128
(dp6642
g10
I1
sg3
I1
ssg4916
(dp6643
S"I'm"
p6644
I1
sg3
I2
sS'Fuck'
p6645
I1
ssg5442
(dp6646
g10
I1
sg3
I1
ssg3635
(dp6647
g2849
I1
sg3
I1
ssg5441
(dp6648
g3
I1
sS'Morty.'
p6649
I1
ssg226
(dp6650
g3
I1
sS'NOOOOO!!!!'
p6651
I1
ssS'yet.'
p6652
(dp6653
g10
I1
sg3
I1
ssg5645
(dp6654
S'with'
p6655
I1
sg3
I1
ssS'cheer'
p6656
(dp6657
S'and'
p6658
I1
sg3
I1
ssg5956
(dp6659
g2264
I1
sg3
I1
ssg1424
(dp6660
g10
I1
sg3
I1
ssg5266
(dp6661
S'the'
p6662
I1
sg3
I1
ssg2993
(dp6663
S'and'
p6664
I1
sg3
I1
ssg1187
(dp6665
g1504
I1
sg3
I1
ssS'guys!'
p6666
(dp6667
S'We'
p6668
I1
sg3
I1
ssg4
(dp6669
g3
I1
sg6285
I1
ssg1189
(dp6670
S'here'
p6671
I1
sg3
I10
sg4455
I6
sS'in'
p6672
I1
sS'not'
p6673
I1
sS'the'
p6674
I1
ssg572
(dp6675
S'on'
p6676
I1
sg3
I1
ssg2914
(dp6677
S'Listen,'
p6678
I1
sS"You're"
p6679
I1
sg3
I2
ssg5615
(dp6680
S'tessellated'
p6681
I1
sg3
I1
ssg6271
(dp6682
S'of'
p6683
I1
sg3
I1
ssg2350
(dp6684
S'my'
p6685
I1
sg3
I1
ssg1102
(dp6686
S'and'
p6687
I1
sg3
I1
ssg4479
(dp6688
S'to'
p6689
I1
sg3
I1
ssg461
(dp6690
S'of'
p6691
I1
sg3
I2
sS'runneth'
p6692
I1
ssS'alternate'
p6693
(dp6694
g6545
I1
sg3386
I1
sg3
I2
ssg5584
(dp6695
S"motherfuckin'"
p6696
I1
sg5292
I1
sg3
I2
ssg4766
(dp6697
g6158
I1
sg3
I2
sS'are'
p6698
I1
ssg6016
(dp6699
g10
I1
sg3
I1
ssg3561
(dp6700
g10
I1
sg3
I1
ssg1767
(dp6701
g3
I1
sg3427
I1
ssS'faster,'
p6702
(dp6703
g3
I1
sS'but'
p6704
I1
ssS't-th-that'
p6705
(dp6706
g4411
I1
sg3
I1
ssS'Oh'
p6707
(dp6708
S'my'
p6709
I7
sg6291
I2
sg3
I9
ssS'question,'
p6710
(dp6711
g3
I1
sS'Morty.'
p6712
I1
ssg5897
(dp6713
S'me'
p6714
I1
sg3
I1
ssg3669
(dp6715
g4092
I1
sg3
I1
ssS'adventures,'
p6716
(dp6717
S'Morty!'
p6718
I1
sg3
I1
ssg1525
(dp6719
S'the'
p6720
I1
sg3
I1
ssg5121
(dp6721
g3
I1
sS'your'
p6722
I1
ssS'BEFORE'
p6723
(dp6724
g3
I1
sg4333
I1
ssg120
(dp6725
g4516
I1
sg3
I1
ssS'OF'
p6726
(dp6727
g580
I1
sg6244
I1
sg3
I2
ssg2036
(dp6728
S'Come'
p6729
I1
sg3
I1
ssg5873
(dp6730
S'you'
p6731
I1
sg3
I1
ssg4434
(dp6732
g230
I1
sg3
I1
ssg2039
(dp6733
g3
I1
sS'Morty.'
p6734
I1
ssg3695
(dp6735
g3803
I1
sg3
I1
ssg1338
(dp6736
S'listen,'
p6737
I2
sg3353
I1
sS"don't"
p6738
I1
sS"what's"
p6739
I1
sg3
I9
sg2229
I1
sS'Morty.'
p6740
I1
sS"isn't"
p6741
I1
sS'Morty,'
p6742
I1
ssg3697
(dp6743
g4549
I1
sg3
I2
sS'lay'
p6744
I1
ssS'Sleepy'
p6745
(dp6746
g5752
I1
sg3
I1
ssg3815
(dp6747
g3
I1
sS'flatlines]'
p6748
I1
ssg5994
(dp6749
S'sort'
p6750
I1
sS'on'
p6751
I1
sS'good'
p6752
I1
sS'DNA'
p6753
I1
sS'help'
p6754
I1
sS'of'
p6755
I2
sS'ice'
p6756
I1
sg3
I14
sS'convoluted'
p6757
I1
sS'big'
p6758
I1
sg6272
I1
sg6556
I1
sS'youthful'
p6759
I1
sS'more'
p6760
I1
ssg2379
(dp6761
S'from'
p6762
I1
sg6652
I1
sS'to'
p6763
I3
sg3
I7
sS'home'
p6764
I1
sS'with'
p6765
I1
ssg76
(dp6766
g107
I1
sg3
I1
ssS'costume,'
p6767
(dp6768
S'and'
p6769
I1
sg3
I1
ssg3019
(dp6770
g3
I1
sS'AIDS!!'
p6771
I1
ssS'Episode'
p6772
(dp6773
g6533
I1
sg3286
I1
sg3
I2
ssS'ourselves'
p6774
(dp6775
S'because'
p6776
I1
sg3
I1
ssS'[crawls'
p6777
(dp6778
S'into'
p6779
I1
sg3
I1
ssS'Jerry?'
p6780
(dp6781
g3
I1
sg6707
I1
ssg551
(dp6782
g3
I1
sg2567
I1
ssg1229
(dp6783
g6170
I1
sg3
I1
ssg1230
(dp6784
S'that'
p6785
I1
sS'I-I-I'
p6786
I1
sS'anyone'
p6787
I1
sg3625
I1
sg3
I6
sS"I'm"
p6788
I1
sS'Morty,'
p6789
I1
ssS'good;'
p6790
(dp6791
S"let's"
p6792
I1
sg3
I1
ssS'pros'
p6793
(dp6794
S'and'
p6795
I1
sg3
I1
ssS'W-w-wh-wh-why'
p6796
(dp6797
g3
I1
sS"isn't"
p6798
I1
ssS'Jerry.'
p6799
(dp6800
g10
I1
sS'Summer'
p6801
I1
sg3
I2
ssg1231
(dp6802
S"it's"
p6803
I1
sg3
I1
ssg5459
(dp6804
S'to'
p6805
I1
sg3
I1
ssg2028
(dp6806
g3
I1
sS'just'
p6807
I1
ssg4921
(dp6808
g3
I1
sS'huh?'
p6809
I1
ssS'good.'
p6810
(dp6811
g3980
I1
sg3
I1
ssS'Jerry!'
p6812
(dp6813
g10
I1
sg45
I1
sg3
I2
ssg4473
(dp6814
g3875
I1
sS'over'
p6815
I1
sS'an'
p6816
I2
sS'in'
p6817
I1
sS'careful,'
p6818
I1
sS'able'
p6819
I1
sg5328
I1
sg6810
I1
sS'rich,'
p6820
I1
sg3565
I1
sS'intimidating.'
p6821
I1
sS'that'
p6822
I1
sg2901
I1
sS'safe'
p6823
I1
sS'disappointed,'
p6824
I1
sg6154
I1
sg3
I32
sg5807
I1
sS'cool'
p6825
I1
sg347
I4
sg2927
I1
sg5817
I1
sS'like'
p6826
I1
sS'these'
p6827
I1
sg2665
I1
sg5835
I1
sS'obvious'
p6828
I1
sS'the'
p6829
I1
sS'my'
p6830
I1
ssg4493
(dp6831
g10
I1
sg3
I1
ssg4474
(dp6832
g535
I1
sg3
I4
sg6702
I1
sS'around'
p6833
I1
sg2546
I1
ssg5317
(dp6834
S'what'
p6835
I1
sg3
I5
sS'around'
p6836
I1
sS'at'
p6837
I3
ssg2064
(dp6838
g6780
I1
sS'because'
p6839
I1
sg3
I2
ssg5174
(dp6840
g3
I1
sS'it'
p6841
I1
ssg2214
(dp6842
g3
I2
sS'Murray'
p6843
I2
ssg5005
(dp6844
g3
I1
sS'Jerry!'
p6845
I1
ssg1854
(dp6846
S'You'
p6847
I1
sg3
I1
ssg4248
(dp6848
S'This'
p6849
I1
sS'And'
p6850
I1
sS'We'
p6851
I1
sg3
I4
sg5068
I1
ssg2403
(dp6852
g10
I1
sg3
I1
ssg3760
(dp6853
g347
I2
sS'this'
p6854
I1
sS'me,'
p6855
I1
sg67
I1
sS'an'
p6856
I1
sg3
I9
sg5204
I1
sS'the'
p6857
I2
ssg1894
(dp6858
S'because'
p6859
I1
sg3
I1
ssg1306
(dp6860
g107
I1
sg3
I1
ssg5966
(dp6861
g669
I1
sS'us,'
p6862
I1
sS'every'
p6863
I1
sg844
I1
sg3
I5
sS'the'
p6864
I1
ssS'Summer,'
p6865
(dp6866
S'you'
p6867
I1
sg3
I2
sS'huh,'
p6868
I1
ssg3749
(dp6869
g10
I1
sg3
I1
ssg1360
(dp6870
g3
I1
sS'have'
p6871
I1
ssg1863
(dp6872
g5056
I1
sg3
I1
ssg2998
(dp6873
g10
I1
sg3
I1
ssS'cutters!'
p6874
(dp6875
g3
I1
sS'Ah,'
p6876
I1
ssg1248
(dp6877
g3
I2
sS'like'
p6878
I2
ssg5013
(dp6879
S'go'
p6880
I1
sS'see'
p6881
I1
sg3
I4
sS'take'
p6882
I1
sS'check'
p6883
I1
ssg5528
(dp6884
g486
I1
sg3
I1
ssg6759
(dp6885
g1381
I1
sg3
I1
ssg2125
(dp6886
g10
I1
sg3
I1
ssS'boy!'
p6887
(dp6888
g3132
I1
sg3
I2
sS'Look'
p6889
I1
ssg4253
(dp6890
S'now'
p6891
I1
sg3
I1
ssg1796
(dp6892
g3
I1
sS'asshole!'
p6893
I1
ssg6172
(dp6894
g347
I4
sS"Morty's"
p6895
I1
sS'ice?!'
p6896
I1
sS'this.'
p6897
I1
sS'it]'
p6898
I1
sg3
I13
sg3421
I1
sS'the'
p6899
I1
sS'my'
p6900
I1
sS'your'
p6901
I1
sS"'em"
p6902
I1
ssS'fast,'
p6903
(dp6904
g3
I1
sS'Morty.'
p6905
I1
ssS'boy.'
p6906
(dp6907
g3
I2
sS'Looks'
p6908
I1
sg4692
I1
ssg4159
(dp6909
g3
I1
sS'Morty,'
p6910
I1
ssg5837
(dp6911
S'is'
p6912
I1
sg3
I1
ssg1638
(dp6913
S"They're"
p6914
I1
sg3
I1
ssg2084
(dp6915
g10
I1
sS'[The'
p6916
I1
sg3
I2
ssg193
(dp6917
g3
I1
sS'like'
p6918
I1
ssS'plane!'
p6919
(dp6920
g3
I1
sS"We're"
p6921
I1
ssg2855
(dp6922
g6249
I1
sg3
I1
ssg5620
(dp6923
S'real'
p6924
I1
sg3
I1
ssS'believe.'
p6925
(dp6926
S'So'
p6927
I1
sg3
I1
ssS'off\xe2\x80\x94'
p6928
(dp6929
g3
I1
sS'get'
p6930
I1
ssg6818
(dp6931
g3
I1
sS'Morty.'
p6932
I1
ssg6432
(dp6933
g2705
I1
sS'minute,'
p6934
I1
sg3
I2
ssg1683
(dp6935
S'all'
p6936
I1
sS'afraid'
p6937
I1
sg6203
I1
sg6790
I1
sS'gonna'
p6938
I7
sg3
I11
ssg5241
(dp6939
S'and'
p6940
I1
sg3
I1
ssg1267
(dp6941
g3618
I1
sg3
I4
sg3572
I3
ssg5739
(dp6942
g3064
I1
sS'jar]'
p6943
I1
sg3
I2
ssg2955
(dp6944
S'too.'
p6945
I1
sg3
I1
ssg6821
(dp6946
S'You'
p6947
I1
sg3
I1
ssg5627
(dp6948
g5814
I1
sg3
I1
ssg3513
(dp6949
g3
I1
sS"That's"
p6950
I1
ssg3559
(dp6951
g5790
I1
sg3
I1
ssS'Megaseeds,'
p6952
(dp6953
g2715
I1
sg3
I1
ssg6042
(dp6954
g3972
I1
sg3
I1
ssg3730
(dp6955
S'We'
p6956
I1
sg3
I1
ssS'Nintendo,'
p6957
(dp6958
g3
I1
sS'give'
p6959
I1
ssg3731
(dp6960
g3
I2
sS'your'
p6961
I2
ssg5943
(dp6962
g10
I1
sg3
I1
ssg3822
(dp6963
S'do'
p6964
I1
sg3
I1
ssg2407
(dp6965
S'do'
p6966
I1
sS'land'
p6967
I2
sS'just'
p6968
I1
sS'be'
p6969
I1
sS'fix'
p6970
I1
sg3
I11
sS'grab'
p6971
I1
sS'land,'
p6972
I3
sg4609
I1
ssg940
(dp6973
g3
I1
sS'at'
p6974
I1
ssg5379
(dp6975
S'and'
p6976
I1
sS'real'
p6977
I1
sS'all'
p6978
I1
sS'to'
p6979
I3
sS'just'
p6980
I1
sS'their'
p6981
I1
sg2439
I1
sS'into'
p6982
I1
sg998
I1
sS'now!'
p6983
I1
sS'here'
p6984
I1
sS'everywhere!'
p6985
I1
sg3207
I1
sS'as'
p6986
I1
sg3
I20
sg6903
I1
sS'the'
p6987
I1
sg4752
I2
ssg6843
(dp6988
S'did'
p6989
I1
sg3
I2
sg1786
I1
ssS'planet'
p6990
(dp6991
S'will'
p6992
I1
sg5713
I1
sg3
I3
sS'have'
p6993
I1
ssg1281
(dp6994
g3752
I1
sg3
I1
ssS'ways?'
p6995
(dp6996
g1627
I1
sg3
I1
ssS'apiece'
p6997
(dp6998
g1010
I1
sg3
I1
ssS'similar'
p6999
(dp7000
S'to'
p7001
I1
sg3
I1
ssg3868
(dp7002
S'"Ball'
p7003
I1
sS'the'
p7004
I1
sg3
I4
sS'it'
p7005
I1
sS'\xe2\x80\x9cOoh!'
p7006
I1
ssg485
(dp7007
g10
I1
sg3
I1
ssg4350
(dp7008
g6957
I1
sg3
I1
ssg4458
(dp7009
g3
I1
sS'out'
p7010
I1
ssg6696
(dp7011
g3
I1
sg6605
I1
ssg2097
(dp7012
g3
I1
sS'or'
p7013
I1
ssg6377
(dp7014
g10
I1
sg3
I1
ssg4301
(dp7015
g107
I1
sS'So'
p7016
I1
sg3
I2
ssg2151
(dp7017
S'death.'
p7018
I1
sg3
I2
sS'it'
p7019
I1
ssg4231
(dp7020
S'[burps,'
p7021
I1
sg3
I1
ssg1294
(dp7022
g6710
I1
sg3
I1
ssg3434
(dp7023
S"I'm"
p7024
I1
sg3
I1
ssg2155
(dp7025
g3
I1
sg2775
I1
ssg5885
(dp7026
S"you're"
p7027
I1
sS'Morty'
p7028
I1
sS'on'
p7029
I1
sS"it's"
p7030
I1
sS'kind'
p7031
I1
sg77
I1
sS'they'
p7032
I1
sg3
I9
sS'you'
p7033
I1
sS"that's"
p7034
I1
ssg4608
(dp7035
g6408
I1
sS'because'
p7036
I1
sg3
I2
ssS'TO'
p7037
(dp7038
g6469
I1
sg3
I1
ssg5073
(dp7039
g1113
I1
sg3
I1
ssS'vehicle,'
p7040
(dp7041
g5980
I1
sg3
I1
ssg4005
(dp7042
g3
I1
sS'jar.'
p7043
I1
ssS'does]'
p7044
(dp7045
g3
I1
sg2143
I1
ssg197
(dp7046
S'intelligent'
p7047
I1
sg3
I1
ssg4383
(dp7048
S'to'
p7049
I1
sS'is'
p7050
I1
sg3
I2
ssg4230
(dp7051
g10
I1
sg3
I1
ssg5199
(dp7052
S'this'
p7053
I1
sg3
I1
ssg4573
(dp7054
g107
I1
sg3
I1
ssg6378
(dp7055
g3
I1
sg1361
I1
ssg2122
(dp7056
g3
I1
sS'Morty.'
p7057
I1
ssg3606
(dp7058
g5671
I1
sg3
I1
ssg5641
(dp7059
g10
I1
sg3
I1
ssg4587
(dp7060
g4707
I1
sg3
I1
ssg6967
(dp7061
S'the'
p7062
I2
sg3
I2
ssg4035
(dp7063
S'you'
p7064
I1
sg3
I1
ssS'backed'
p7065
(dp7066
S'the'
p7067
I1
sg3
I1
ssg1302
(dp7068
S'entire'
p7069
I1
sg3
I1
ssg2240
(dp7070
g10
I1
sg3
I2
sg3795
I1
ssg4566
(dp7071
S'[Meeseeks'
p7072
I1
sg3
I1
ssg2115
(dp7073
S'Wow,'
p7074
I1
sg3
I1
ssg4700
(dp7075
g3
I1
sS'people'
p7076
I1
ssg6481
(dp7077
g864
I1
sg3
I2
sg869
I1
ssg6400
(dp7078
g347
I1
sg3
I1
ssg476
(dp7079
g5486
I1
sg3
I1
ssg6566
(dp7080
g5503
I1
sg3
I1
ssg4209
(dp7081
g6874
I1
sg3
I3
sS'cutters'
p7082
I2
ssS'alien'
p7083
(dp7084
g4546
I1
sS'car'
p7085
I1
sg912
I1
sg3
I4
sg3532
I1
ssg4463
(dp7086
S'and'
p7087
I1
sg4617
I1
sg4188
I1
sg5388
I1
sS'get'
p7088
I2
sS'back'
p7089
I2
sg6615
I1
sg3
I12
sg5377
I1
sS'the'
p7090
I1
sS'click'
p7091
I1
ssg457
(dp7092
g3
I1
sS"Motherflippin'"
p7093
I1
ssg855
(dp7094
g10
I1
sg3
I1
ssg5583
(dp7095
g631
I1
sg3
I1
ssg3077
(dp7096
g347
I1
sg3
I1
ssS'cupboard]'
p7097
(dp7098
g3
I1
sg685
I1
ssg1723
(dp7099
g10
I1
sg3
I1
ssg3841
(dp7100
g6440
I1
sg3
I1
ssg3928
(dp7101
S'we'
p7102
I1
sg3
I1
ssg1202
(dp7103
S'my'
p7104
I1
sg3
I3
sS'like'
p7105
I1
sg2939
I1
ssS'Now'
p7106
(dp7107
g4864
I1
sS'we'
p7108
I1
sS'help'
p7109
I1
sS'what'
p7110
I1
sS'get'
p7111
I1
sS'it'
p7112
I1
sg3171
I1
sg3
I10
sS'pick'
p7113
I1
sg1905
I1
sS'Morty,'
p7114
I1
ssg6095
(dp7115
g594
I1
sg3
I1
ssg2813
(dp7116
g3
I1
sS'Fuck'
p7117
I1
ssS'Mrs.'
p7118
(dp7119
S'Spencer,'
p7120
I1
sg3
I1
ssS'balls'
p7121
(dp7122
S'and'
p7123
I1
sg3
I1
ssg6916
(dp7124
g3
I1
sS'robot'
p7125
I1
ssg3962
(dp7126
S'And'
p7127
I1
sg3
I1
ssg5113
(dp7128
g3
I1
sg6774
I1
ssg5776
(dp7129
g3
I1
sS'out.'
p7130
I1
ssg3691
(dp7131
g3
I1
sS"'em"
p7132
I1
ssg1212
(dp7133
g3230
I5
sg4105
I1
sg3
I10
sS"I'm"
p7134
I1
sS'you'
p7135
I1
sS'Morty,'
p7136
I2
ssg2035
(dp7137
g4964
I1
sg2415
I1
sg3
I3
sg2423
I1
ssg5894
(dp7138
g10
I1
sg3
I1
ssg2359
(dp7139
g978
I2
sg3
I2
ssg4781
(dp7140
S'The'
p7141
I1
sg3
I1
ssg1825
(dp7142
g1871
I1
sg3
I2
sg6238
I1
ssg2378
(dp7143
g3362
I1
sg3
I1
ssg5163
(dp7144
S'and'
p7145
I1
sS'to'
p7146
I2
sS'his'
p7147
I1
sg3
I4
ssS'ONLY'
p7148
(dp7149
g2948
I1
sg3
I1
ssg6414
(dp7150
g3
I1
sS'MORTY,'
p7151
I1
ssg110
(dp7152
g6106
I1
sS"you're"
p7153
I1
sS'we'
p7154
I1
sg3
I4
sS'Rick'
p7155
I1
ssg5591
(dp7156
S'toaster'
p7157
I1
sg3
I2
sg5325
I1
ssg4754
(dp7158
g4567
I1
sg3
I1
ssg1907
(dp7159
g3
I1
sS'been'
p7160
I1
ssg4755
(dp7161
g107
I1
sg3
I1
ssg820
(dp7162
g3
I2
sS'Morty.'
p7163
I1
sS'they'
p7164
I1
ssS'returns]'
p7165
(dp7166
S'I-I-I'
p7167
I1
sg3
I1
ssS'[name'
p7168
(dp7169
g1375
I1
sg3
I1
ssg5002
(dp7170
g5968
I1
sg5649
I1
sg3
I4
sg1334
I1
sg6812
I1
ssg5632
(dp7171
S'temporal'
p7172
I1
sg3
I1
ssg2047
(dp7173
S'game'
p7174
I1
sg3
I2
sS'game!'
p7175
I1
ssg5102
(dp7176
g4511
I1
sg3
I1
ssg7091
(dp7177
S'all'
p7178
I1
sg3
I2
sS'around'
p7179
I1
ssg600
(dp7180
S'Morty?'
p7181
I1
sg6745
I1
sS'but'
p7182
I2
sg3
I7
sg5883
I1
sS'Morty?!'
p7183
I1
sS'Morty.'
p7184
I1
ssg3960
(dp7185
g10
I1
sS'Oh,'
p7186
I1
sg2431
I1
sg3
I3
ssg28
(dp7187
S'And'
p7188
I1
sg3
I1
ssg4851
(dp7189
g3
I2
sg4715
I2
ssS'giving'
p7190
(dp7191
g3
I1
sS'him'
p7192
I1
ssg462
(dp7193
g3
I1
sS'but'
p7194
I1
ssg5995
(dp7195
g10
I1
sS'The'
p7196
I1
sg3
I3
sS'Uh,'
p7197
I1
ssg6876
(dp7198
g3
I1
sg2707
I1
ssS'that?'
p7199
(dp7200
g10
I1
sg3
I1
ssg4042
(dp7201
g3
I1
sS'cake.'
p7202
I1
ssg1343
(dp7203
g3
I2
sS'for'
p7204
I2
ssg3992
(dp7205
g10
I1
sg3
I1
ssg2419
(dp7206
S'of'
p7207
I1
sg3
I1
ssg4203
(dp7208
g10
I1
sg3
I1
ssg6678
(dp7209
g5256
I3
sS'Morty,'
p7210
I2
sg3
I6
sS'if'
p7211
I1
ssS'everything?'
p7212
(dp7213
g10
I1
sg3
I1
ssg6462
(dp7214
g3
I1
sg6524
I1
ssg1165
(dp7215
S'Listen,'
p7216
I1
sg3
I1
ssg5676
(dp7217
S'and'
p7218
I1
sg3
I1
ssg3135
(dp7219
S'me'
p7220
I5
sS'the'
p7221
I1
sg3
I8
sg5060
I1
sg4614
I1
ssg2876
(dp7222
g3
I1
sS'cup'
p7223
I1
ssg3713
(dp7224
S'with'
p7225
I1
sg3
I1
ssg6349
(dp7226
g4006
I1
sg3
I1
ssg5941
(dp7227
S'to'
p7228
I1
sg3
I1
ssg66
(dp7229
S'Christ,'
p7230
I1
sg3
I1
ssg4513
(dp7231
g3
I1
sg6122
I1
ssS'great'
p7232
(dp7233
S'work,'
p7234
I1
sg3
I2
sS'things,'
p7235
I1
ssg6824
(dp7236
g3
I1
sS'Morty.'
p7237
I1
ssS'fuck,'
p7238
(dp7239
g3
I1
sS'an'
p7240
I1
ssg4259
(dp7241
S'the'
p7242
I1
sg3
I1
ssg4478
(dp7243
S"that'll"
p7244
I1
sS'wanted'
p7245
I1
sg3
I3
sS'HOLY'
p7246
I1
ssg4323
(dp7247
S'KILL'
p7248
I1
sg5447
I1
sg3
I3
sS'DIE,'
p7249
I1
ssg5285
(dp7250
S'you'
p7251
I1
sg6346
I1
sg3
I2
ssg5877
(dp7252
g6631
I1
sg3
I1
ssg212
(dp7253
g3
I1
sg3066
I1
ssg4454
(dp7254
g3
I1
sg3176
I1
ssS'makes'
p7255
(dp7256
S'every'
p7257
I1
sg984
I1
sg3
I3
sS'complete'
p7258
I1
ssg6045
(dp7259
g3
I1
sg6406
I1
ssg2834
(dp7260
g1753
I1
sg3
I1
ssg3407
(dp7261
S'Morty\xe2\x80\x94obviously'
p7262
I1
sg3
I1
ssg429
(dp7263
g6252
I1
sg3
I1
ssg4760
(dp7264
g108
I1
sg3
I1
ssg4264
(dp7265
S'to'
p7266
I1
sg3
I1
ssg5054
(dp7267
S'for'
p7268
I1
sS'of'
p7269
I1
sg3
I5
sS'science'
p7270
I1
sS'my'
p7271
I1
sS'those'
p7272
I1
ssg916
(dp7273
g3
I1
sS'Morty.'
p7274
I1
ssg4764
(dp7275
g2276
I1
sg3
I1
ssg5185
(dp7276
S'the'
p7277
I1
sg3
I1
ssS'next'
p7278
(dp7279
g4735
I1
sg3
I2
sS'time'
p7280
I1
ssg5622
(dp7281
g4191
I1
sS'sub-galactic'
p7282
I1
sg3
I4
sg4933
I1
sg1116
I1
ssg2026
(dp7283
S"You're"
p7284
I1
sg3
I1
ssS'themselves'
p7285
(dp7286
g3
I1
sS'in'
p7287
I1
ssg6757
(dp7288
g3
I1
sS'adventure'
p7289
I1
ssg6750
(dp7290
S'of'
p7291
I1
sg3
I1
ssS'hard,'
p7292
(dp7293
g3
I1
sS'Morty,'
p7294
I1
ssg3604
(dp7295
g2467
I1
sg3
I1
ssg2092
(dp7296
S'Burger'
p7297
I1
sg3
I1
ssg3729
(dp7298
S'me,'
p7299
I1
sg3
I1
ssg4780
(dp7300
g3
I1
sS'can'
p7301
I1
ssg187
(dp7302
S'starts'
p7303
I1
sg3
I1
ssg5630
(dp7304
S'and'
p7305
I1
sS'was'
p7306
I1
sg4830
I1
sg3
I3
ssg2694
(dp7307
g2844
I1
sg3
I1
ssg3683
(dp7308
g3
I1
sS'are'
p7309
I1
ssg4623
(dp7310
S'of'
p7311
I1
sg3
I1
ssg1328
(dp7312
g5830
I1
sg3
I1
ssg4138
(dp7313
S'to'
p7314
I1
sg3
I1
ssg650
(dp7315
S'the'
p7316
I1
sg3
I1
ssg4679
(dp7317
S'guy,'
p7318
I1
sg492
I1
sg5867
I1
sS'is'
p7319
I4
sS'one.'
p7320
I2
sS'one'
p7321
I1
sS'sounds'
p7322
I1
sS'really'
p7323
I1
sg6919
I1
sS'reality,'
p7324
I2
sS'time,'
p7325
I1
sS'time.'
p7326
I2
sS'stupid'
p7327
I1
sg5449
I1
sS'party'
p7328
I1
sS'f-flying'
p7329
I1
sS'place.'
p7330
I1
sS'petri'
p7331
I1
sg6530
I1
sS'vaccum'
p7332
I1
sS'microscope,'
p7333
I1
sg3
I41
sS'room:'
p7334
I1
sg878
I1
sS'chapter'
p7335
I1
sS'detail,'
p7336
I1
sg3993
I1
sS'thing'
p7337
I2
sS'bad'
p7338
I1
sg2808
I1
sS'thing,'
p7339
I1
sS'every'
p7340
I1
sS'whole'
p7341
I2
sS"isn't"
p7342
I1
ssg4402
(dp7343
S'okay?'
p7344
I1
sS'after'
p7345
I1
sg3
I3
sS'we'
p7346
I1
ssg4274
(dp7347
g3
I1
sg577
I1
ssg6828
(dp7348
S'to'
p7349
I1
sg3
I1
ssg1243
(dp7350
g3486
I1
sg3
I1
ssg6305
(dp7351
g10
I1
sg3
I1
ssS'drops'
p7352
(dp7353
S'down'
p7354
I1
sg3
I1
ssg3786
(dp7355
S'me'
p7356
I1
sS'of'
p7357
I1
sS'us'
p7358
I1
sg3
I5
sS'the'
p7359
I1
sg3632
I1
ssg5638
(dp7360
S'of'
p7361
I1
sg3
I1
ssg6771
(dp7362
S'And'
p7363
I1
sg3
I1
ssg991
(dp7364
g3
I1
sg4160
I1
ssg5035
(dp7365
g3
I1
sS'your'
p7366
I1
ssg1877
(dp7367
g3
I3
sg675
I1
sS'road'
p7368
I1
sS'road,'
p7369
I1
ssg4633
(dp7370
g3
I2
sS'Poopybutthole.'
p7371
I1
sg3491
I1
ssg1798
(dp7372
S'about'
p7373
I1
sS'stupid'
p7374
I1
sg3
I3
sS'that'
p7375
I1
ssg2148
(dp7376
S'into'
p7377
I1
sg3
I1
ssg1865
(dp7378
g10
I1
sg3
I1
ssg4647
(dp7379
S'is'
p7380
I1
sg3
I1
ssg4762
(dp7381
g3
I1
sS'for'
p7382
I1
ssg3352
(dp7383
g1
I1
sg3
I3
sg5762
I2
ssg1703
(dp7384
g3
I1
sg5539
I1
ssg3765
(dp7385
S'so'
p7386
I1
sg3
I1
ssg1207
(dp7387
S'by]'
p7388
I1
sg3
I1
ssg1848
(dp7389
g10
I1
sg3
I1
ssg190
(dp7390
S'of'
p7391
I1
sg3
I1
ssg7329
(dp7392
g7040
I1
sg3
I1
ssg7047
(dp7393
g5348
I1
sg3
I2
sg4540
I1
ssg103
(dp7394
S'somewhere'
p7395
I1
sg5432
I1
sg3
I2
ssg1304
(dp7396
g6887
I1
sg3
I1
ssg7332
(dp7397
S'to'
p7398
I1
sg3
I1
ssg5465
(dp7399
g3
I1
sg2203
I1
ssg6023
(dp7400
S'and'
p7401
I1
sg3
I1
ssg6114
(dp7402
g3
I1
sS'They'
p7403
I1
ssg3963
(dp7404
g3
I1
sS'Maybe,'
p7405
I1
ssg488
(dp7406
g10
I1
sg3
I1
ssg1897
(dp7407
g3
I1
sg6995
I1
ssg655
(dp7408
g4880
I1
sg3
I1
ssg7125
(dp7409
g3
I1
sg7044
I1
ssS'One'
p7410
(dp7411
S'is'
p7412
I1
sg3
I1
ssg5646
(dp7413
g901
I1
sg3
I1
ssg7130
(dp7414
g10
I1
sg5533
I1
sg3
I3
sg2464
I1
ssg4856
(dp7415
S'brainwaves'
p7416
I1
sg3
I1
ssS'thoroughly]'
p7417
(dp7418
g3413
I1
sg3
I1
ssg3739
(dp7419
g347
I1
sg3
I1
ssg5558
(dp7420
g3940
I1
sg3
I1
ssg4505
(dp7421
S'gets'
p7422
I1
sg3
I1
ssg4321
(dp7423
g7352
I1
sg3
I1
ssg7248
(dp7424
g3
I1
sg2638
I1
ssg1835
(dp7425
g2009
I1
sg3
I2
sS'like'
p7426
I1
ssg5597
(dp7427
g107
I1
sg3
I1
ssg1617
(dp7428
g2662
I1
sg3
I2
sg5148
I1
ssg5582
(dp7429
S'of'
p7430
I5
sg3
I5
ssg2020
(dp7431
g1612
I1
sg3
I2
sg439
I1
ssg6538
(dp7432
S'and'
p7433
I1
sg3
I1
ssg7172
(dp7434
S'field'
p7435
I1
sg3
I1
ssg4655
(dp7436
g10
I1
sg3
I1
ssg1200
(dp7437
g10
I1
sg3
I1
ssg1201
(dp7438
S'Mr.'
p7439
I1
sg3
I2
sS'Morty.'
p7440
I1
ssS'communication'
p7441
(dp7442
g3
I1
sg2543
I1
ssg1715
(dp7443
S'end'
p7444
I1
sg3
I1
ssg5628
(dp7445
g3
I1
sS'in'
p7446
I1
ssg216
(dp7447
g1107
I1
sg3
I1
ssg7006
(dp7448
S'Let'
p7449
I1
sg3
I1
ssg6070
(dp7450
g5962
I1
sg3
I1
ssg6896
(dp7451
g10
I1
sg3
I1
ssg1257
(dp7452
S'things'
p7453
I1
sg3
I1
ssg5589
(dp7454
g2799
I1
sg3
I1
ssg215
(dp7455
g3675
I1
sg3
I1
ssg4776
(dp7456
S'off'
p7457
I1
sg3
I2
sS'on'
p7458
I1
ssg626
(dp7459
g3
I2
sS'here'
p7460
I1
sg1326
I1
ssg6801
(dp7461
S'and'
p7462
I1
sS'10'
p7463
I1
sg3
I4
sS'off'
p7464
I1
sS'first.'
p7465
I1
ssg4551
(dp7466
S"It's"
p7467
I1
sg3
I1
ssg1015
(dp7468
g6767
I1
sg3
I1
ssg3511
(dp7469
g10
I1
sg3
I1
ssg1066
(dp7470
g5138
I1
sg3
I1
ssg6329
(dp7471
g259
I1
sg3
I1
ssS'Say'
p7472
(dp7473
g3
I1
sS'that'
p7474
I1
ssg1782
(dp7475
g3
I1
sS'two'
p7476
I1
ssg6008
(dp7477
g3
I1
sS'next'
p7478
I1
ssg2337
(dp7479
g3
I1
sS'Morty.'
p7480
I1
ssS'beneath'
p7481
(dp7482
g161
I1
sg3
I1
ssg6737
(dp7483
S'where'
p7484
I1
sg3
I2
sS"I've"
p7485
I1
ssg6295
(dp7486
S'Yeah,'
p7487
I1
sg3
I1
ssg5324
(dp7488
g3
I1
sg3094
I1
ssg3200
(dp7489
S'that,'
p7490
I1
sg3
I1
ssg1970
(dp7491
g3
I1
sS'called'
p7492
I1
ssg3702
(dp7493
S'it?'
p7494
I1
sg3
I1
ssg5404
(dp7495
g3
I1
sS'Morty,'
p7496
I1
ssg1799
(dp7497
S'package.'
p7498
I1
sg6332
I1
sg4025
I1
sg5063
I1
sg5567
I1
sS'dead'
p7499
I1
sg6990
I1
sg3
I10
sg573
I1
sg695
I1
sg5076
I1
ssS'sexual'
p7500
(dp7501
g5337
I1
sg3
I1
ssg5598
(dp7502
S'fuel'
p7503
I1
sg372
I1
sg3
I2
ssg1837
(dp7504
S'there,'
p7505
I1
sS'and'
p7506
I1
sg6514
I1
sg6487
I1
sS'for'
p7507
I1
sS'that'
p7508
I1
sS'of'
p7509
I6
sg6693
I1
sg3
I17
sS'here.'
p7510
I1
sS'in'
p7511
I1
sS'so'
p7512
I1
sS'by'
p7513
I1
ssg7021
(dp7514
g3
I1
sg3118
I1
ssg6353
(dp7515
g3
I1
sS'one'
p7516
I1
ssg4432
(dp7517
S'and'
p7518
I1
sS'word'
p7519
I1
sg3
I3
sS'boy.'
p7520
I1
ssg2056
(dp7521
S"it's"
p7522
I1
sS'Morty!'
p7523
I1
sg3
I3
sS'Morty.'
p7524
I1
ssg2058
(dp7525
g10
I1
sS'So'
p7526
I1
sg7106
I2
sg3
I5
sS"It's"
p7527
I1
ssg1197
(dp7528
g3
I2
sg4554
I1
sg1045
I1
ssg4706
(dp7529
g5891
I1
sg3
I1
ssg4509
(dp7530
S'Rubber'
p7531
I1
sg623
I1
sg3
I2
ssg1660
(dp7532
g107
I1
sg6589
I1
sg3
I2
ssS'dirt,'
p7533
(dp7534
S'right?'
p7535
I1
sg3
I1
ssg1325
(dp7536
S'about'
p7537
I1
sg3
I2
sS'down.'
p7538
I1
ssg1233
(dp7539
g3
I1
sS'Just'
p7540
I1
ssg2893
(dp7541
g3
I1
sg968
I1
ssg5004
(dp7542
g3
I1
sS'in'
p7543
I1
ssg4748
(dp7544
g5773
I1
sS'buckle'
p7545
I1
sg3
I3
sS'give'
p7546
I1
ssg4548
(dp7547
g3
I1
sS'behind]'
p7548
I1
ssg5176
(dp7549
S'every'
p7550
I1
sS'when'
p7551
I1
sg3
I4
sg2957
I1
sg4073
I1
ssg4437
(dp7552
g10
I1
sg3
I1
ssg41
(dp7553
g10
I1
sg3
I1
ssg92
(dp7554
g3
I1
sg1352
I1
ssg5114
(dp7555
S'and'
p7556
I1
sg3
I2
sS'situations,'
p7557
I1
ssg2758
(dp7558
S'you'
p7559
I1
sg3
I1
ssg7235
(dp7560
g3
I2
sS'Morty.'
p7561
I1
sS'Morty,'
p7562
I1
ssg3197
(dp7563
S'count'
p7564
I1
sS'be'
p7565
I1
sS'roofie'
p7566
I1
sS'do'
p7567
I1
sg3011
I1
sS'turn'
p7568
I1
sg6379
I1
sg3
I8
sS'pick'
p7569
I1
ssg5287
(dp7570
g2894
I1
sg3
I1
ssg2073
(dp7571
S'And'
p7572
I1
sg3
I1
ssg5116
(dp7573
g10
I1
sg3
I1
ssg5786
(dp7574
g3
I1
sS'together,'
p7575
I1
ssg3093
(dp7576
S'with'
p7577
I1
sg3
I1
ssg482
(dp7578
S'defibulizer,'
p7579
I1
sg3
I2
sg5269
I1
ssg5236
(dp7580
g3
I1
sS'at'
p7581
I1
ssg977
(dp7582
S'and'
p7583
I1
sg3
I1
ssg7557
(dp7584
g107
I1
sg3
I1
ssg7531
(dp7585
S'baby'
p7586
I1
sg3
I1
ssg5952
(dp7587
S'See,'
p7588
I1
sg3
I1
ssg5182
(dp7589
S'about'
p7590
I1
sg3
I1
ssg5685
(dp7591
g347
I1
sg5066
I1
sg3
I3
sS'thing'
p7592
I1
ssg3721
(dp7593
g347
I2
sg753
I1
sg1369
I1
sg7190
I1
sS'gonna'
p7594
I7
sg6228
I1
sS'as'
p7595
I1
sg3
I21
sS'easy'
p7596
I1
sS'not'
p7597
I1
sg368
I1
sg4839
I2
sg5895
I2
ssg649
(dp7598
g2380
I1
sg3
I1
ssg7498
(dp7599
g3
I1
sS'Just'
p7600
I1
ssg5280
(dp7601
g3
I1
sS'Morty.'
p7602
I1
ssg5183
(dp7603
S'and'
p7604
I1
sg3
I1
ssg6512
(dp7605
g3
I1
sg3944
I1
ssg5621
(dp7606
g4749
I1
sS'You'
p7607
I1
sg3
I3
sS'We'
p7608
I1
ssg3722
(dp7609
g7121
I1
sS'bets.'
p7610
I1
sg2209
I1
sg6112
I1
sS'asses,'
p7611
I1
sg6716
I1
sS'computer'
p7612
I1
sg3
I9
sg3872
I1
sg7500
I1
ssg348
(dp7613
S'is'
p7614
I1
sg3
I1
ssg1269
(dp7615
S'little'
p7616
I1
sg3
I1
ssg7548
(dp7617
g3
I1
sS"we're"
p7618
I1
ssg1522
(dp7619
g5058
I1
sg3
I1
ssg7333
(dp7620
g3
I1
sS'it'
p7621
I1
ssg7244
(dp7622
S'be'
p7623
I1
sg3
I1
ssg2992
(dp7624
S'ones'
p7625
I1
sg3
I1
ssg6389
(dp7626
g10
I1
sg3
I1
ssg6748
(dp7627
S'Okay,'
p7628
I1
sg3
I1
ssg4472
(dp7629
g3
I1
sg6559
I1
ssS'loves'
p7630
(dp7631
g2620
I1
sg3
I1
ssg5635
(dp7632
g1729
I1
sg3
I1
ssS'wakes'
p7633
(dp7634
g39
I1
sg3
I1
ssg2763
(dp7635
g3
I1
sS'for'
p7636
I1
ssg3735
(dp7637
S'and'
p7638
I1
sg3
I1
ssg5193
(dp7639
g347
I4
sg586
I1
sg700
I1
sS'made'
p7640
I2
sS'no'
p7641
I1
sS'in'
p7642
I1
sS'some'
p7643
I1
sS'it'
p7644
I1
sS'been'
p7645
I2
sS'one'
p7646
I1
sS'to'
p7647
I10
sg3
I30
sS'time'
p7648
I1
sS'put'
p7649
I1
sS'the'
p7650
I1
sg5463
I1
sS'it.'
p7651
I1
ssg5920
(dp7652
g347
I3
sS'a...'
p7653
I1
sg794
I1
sS'to'
p7654
I1
sg1076
I1
sS'those'
p7655
I1
sg3
I10
sS'your'
p7656
I1
sg3505
I1
ssg5040
(dp7657
g3
I1
sS'They'
p7658
I1
ssg1779
(dp7659
g2980
I1
sg3
I1
ssg3190
(dp7660
g7065
I1
sg3
I1
ssg7258
(dp7661
S'sense,'
p7662
I1
sg3
I1
ssg797
(dp7663
g3
I2
sg3990
I1
sg2717
I1
ssg6937
(dp7664
S'to'
p7665
I1
sg3
I1
ssg7369
(dp7666
S'Summer!'
p7667
I1
sg3
I1
ssg2499
(dp7668
S'to'
p7669
I3
sg3
I3
ssg4789
(dp7670
g10
I1
sg3
I1
ssg441
(dp7671
S'Chapter'
p7672
I1
sg3
I1
ssg4347
(dp7673
g10
I1
sg3
I1
ssg1888
(dp7674
g107
I2
sS'we'
p7675
I1
sg3
I5
sS'is'
p7676
I1
sS'they'
p7677
I1
ssg3958
(dp7678
S'on'
p7679
I1
sg3
I1
ssg1850
(dp7680
S'Morty'
p7681
I1
sg3
I1
ssg7246
(dp7682
g353
I1
sg3
I1
ssg800
(dp7683
S'wants'
p7684
I1
sg2594
I1
sS'of'
p7685
I1
sS'is'
p7686
I1
sS'am'
p7687
I1
sg3
I7
sS'answer'
p7688
I1
sS'wanted'
p7689
I1
ssg1307
(dp7690
S'And'
p7691
I1
sS"Let's"
p7692
I1
sg275
I1
sg3
I3
ssg2179
(dp7693
g3
I1
sg6723
I1
ssg1308
(dp7694
S'about'
p7695
I1
sS"y'know"
p7696
I1
sS'no'
p7697
I1
sg107
I1
sS"it's"
p7698
I3
sg2635
I1
sg2215
I1
sS'most'
p7699
I1
sS'yeah,'
p7700
I2
sS'sure'
p7701
I1
sg3
I20
sg5231
I1
sg6033
I1
sS'alright,'
p7702
I1
sS'so'
p7703
I1
sS"I'm"
p7704
I1
sS'Morty.'
p7705
I1
sg2764
I1
ssg3201
(dp7706
g4585
I1
sg3
I1
ssg2537
(dp7707
S'dream.'
p7708
I1
sg3
I1
ssg3743
(dp7709
g4162
I1
sg3
I1
ssS'Steve",'
p7710
(dp7711
g3
I1
sS'that'
p7712
I1
ssg3621
(dp7713
g107
I1
sS'you'
p7714
I1
sg3
I3
sS"don't"
p7715
I1
ssg5467
(dp7716
g7472
I1
sS"There's"
p7717
I1
sg3
I2
ssg4875
(dp7718
g6777
I1
sg3
I1
ssg4059
(dp7719
g10
I1
sg3
I1
ssg5047
(dp7720
g3
I1
sS'in'
p7721
I1
ssg4173
(dp7722
g3
I1
sg4348
I1
ssg1318
(dp7723
g2233
I1
sg3
I2
sS"it's"
p7724
I1
ssg5862
(dp7725
S'Oh,'
p7726
I1
sg3
I1
ssg5219
(dp7727
S'and'
p7728
I1
sg3
I1
ssS'Earth'
p7729
(dp7730
S'will'
p7731
I1
sS'is'
p7732
I1
sg3
I3
sg532
I1
ssg6344
(dp7733
S'Hey,'
p7734
I1
sg3
I1
ssg2133
(dp7735
g3
I1
sS'that'
p7736
I1
ssg4746
(dp7737
S'starts'
p7738
I1
sg3
I1
ssg3617
(dp7739
g6351
I1
sg3
I2
sS"That's"
p7740
I1
ssg2055
(dp7741
S'it'
p7742
I1
sg5122
I1
sS'Morty!'
p7743
I2
sg3
I7
sS'Morty.'
p7744
I2
sS"that's"
p7745
I1
ssg4976
(dp7746
g10
I1
sg3
I1
ssS'one,'
p7747
(dp7748
S'you'
p7749
I1
sg3
I1
ssg7320
(dp7750
g10
I2
sg3
I3
sg1067
I1
ssg7388
(dp7751
g5662
I1
sg3
I1
ssg5924
(dp7752
g6705
I1
sS'that'
p7753
I1
sg107
I1
sS"it's"
p7754
I2
sS'does'
p7755
I1
sg3
I10
sS'the'
p7756
I2
sg1980
I1
sS'if'
p7757
I1
ssg5926
(dp7758
g10
I1
sg3
I1
ssg2082
(dp7759
g3
I1
sS'They'
p7760
I1
ssg6302
(dp7761
g10
I1
sg3
I1
ssg1192
(dp7762
S'whoa,'
p7763
I1
sg3
I1
ssg2021
(dp7764
g3
I1
sS'Morty.'
p7765
I1
ssg7566
(dp7766
g3299
I1
sg3
I1
ssg6972
(dp7767
S"I'll"
p7768
I3
sg3
I3
ssg1995
(dp7769
g4200
I1
sg3
I4
sS'just'
p7770
I1
sS'have'
p7771
I1
sg2491
I1
ssg1199
(dp7772
g10
I1
sg3
I2
sS'Geez,'
p7773
I1
ssg7503
(dp7774
g107
I1
sg3
I1
ssg475
(dp7775
g3
I1
sg1179
I1
ssg3684
(dp7776
g3
I1
sS'it'
p7777
I1
ssg2014
(dp7778
g7168
I1
sg3
I1
ssg3072
(dp7779
S'that,'
p7780
I1
sg3
I1
ssg2060
(dp7781
g2868
I1
sg3
I1
ssg1570
(dp7782
S'This'
p7783
I1
sg3
I1
ssg5028
(dp7784
g3
I1
sS'in'
p7785
I1
ssg3894
(dp7786
S'the'
p7787
I2
sS'the...'
p7788
I1
sg3
I7
sS'you'
p7789
I3
sS'it!'
p7790
I1
ssg5856
(dp7791
g3
I1
sg2999
I1
ssg5246
(dp7792
S'and'
p7793
I1
sg3
I1
ssg7405
(dp7794
g107
I1
sg3
I1
ssg7625
(dp7795
g3
I1
sS'that'
p7796
I1
ssg2469
(dp7797
S'you'
p7798
I1
sg3
I1
ssg6254
(dp7799
g4043
I1
sg7148
I1
sg3
I3
sg301
I1
ssg6893
(dp7800
S"You're"
p7801
I1
sg3
I1
ssg355
(dp7802
g3974
I2
sg107
I1
sg3
I4
sS'IT'
p7803
I1
ssg267
(dp7804
g3887
I1
sg3
I1
ssg4676
(dp7805
S'computer'
p7806
I1
sg3
I1
ssg6028
(dp7807
S'the'
p7808
I1
sg3
I1
ssS'talking,'
p7809
(dp7810
g107
I1
sg3
I1
ssg7610
(dp7811
S'Now,'
p7812
I1
sg3
I1
ssg4832
(dp7813
S'Lick-lick-lick'
p7814
I1
sg3
I1
ssg4720
(dp7815
g3
I2
sg4330
I1
sg5390
I1
ssS'houses,'
p7816
(dp7817
g3
I1
sS'they'
p7818
I1
ssg4721
(dp7819
g51
I1
sg3
I4
sS'Morty.'
p7820
I1
sS'but'
p7821
I2
ssg1279
(dp7822
g7097
I1
sg3
I1
ssg4684
(dp7823
g107
I1
sS'from'
p7824
I1
sg3
I4
sS'with'
p7825
I1
sg2398
I1
ssg3484
(dp7826
g3
I1
sg866
I1
ssg1834
(dp7827
S'stop'
p7828
I1
sS'make'
p7829
I1
sg3
I3
sg6925
I1
ssg6971
(dp7830
S'yourself,'
p7831
I1
sg3
I3
sS'those'
p7832
I1
sg2960
I1
ssg4143
(dp7833
g3
I1
sS'for'
p7834
I1
ssg4996
(dp7835
g3
I1
sS'creepy'
p7836
I1
ssg5167
(dp7837
S'me.'
p7838
I1
sg3
I1
ssg5440
(dp7839
g3
I1
sS'can'
p7840
I1
ssg2062
(dp7841
S'word'
p7842
I1
sg3
I1
ssg1900
(dp7843
g107
I1
sg3
I1
ssg4902
(dp7844
S'And'
p7845
I1
sg3
I1
ssg7806
(dp7846
g2470
I1
sg3
I2
sg2290
I1
ssg2555
(dp7847
g10
I1
sg1633
I1
sg3
I2
ssg2728
(dp7848
g10
I2
sg3
I3
sg992
I1
ssg137
(dp7849
g6656
I1
sS'other'
p7850
I1
sg3
I2
ssg2049
(dp7851
g3
I1
sS'motherfuckahs!'
p7852
I1
ssg2874
(dp7853
S'with'
p7854
I1
sg3
I1
ssg3275
(dp7855
g1601
I1
sg3
I2
sS'work,'
p7856
I1
ssg4981
(dp7857
S'and'
p7858
I1
sg3
I1
ssg3705
(dp7859
S'be'
p7860
I1
sS'be\xe2\x80\x94'
p7861
I1
sg3
I2
ssg5600
(dp7862
S'and'
p7863
I1
sg3
I1
ssg5788
(dp7864
S'to'
p7865
I1
sg3
I1
ssg5368
(dp7866
g4265
I1
sg3
I1
ssg4769
(dp7867
S'shut'
p7868
I1
sg3
I1
ssg178
(dp7869
S'What'
p7870
I1
sg3
I1
ssg5003
(dp7871
g3
I1
sS'but'
p7872
I1
ssg2065
(dp7873
S'This'
p7874
I1
sg3
I1
ssg939
(dp7875
S'the'
p7876
I1
sg3
I1
ssg1964
(dp7877
S'and'
p7878
I1
sg3
I1
ssg787
(dp7879
g7285
I1
sg3
I1
ssg1814
(dp7880
S'and'
p7881
I1
sg3
I1
ssg4342
(dp7882
g7292
I1
sg3
I1
ssg7814
(dp7883
S'my'
p7884
I1
sg3
I1
ssg3136
(dp7885
g853
I1
sg3
I1
ssg6513
(dp7886
S'uh,'
p7887
I1
sg3
I1
ssg7297
(dp7888
g3
I1
sS'time!'
p7889
I1
ssg6692
(dp7890
g1050
I1
sg3
I1
ssg1962
(dp7891
S'and'
p7892
I1
sg3
I1
ssg3581
(dp7893
S'was'
p7894
I1
sg3
I1
ssg1195
(dp7895
g3002
I1
sg3
I1
ssg7003
(dp7896
g3
I1
sg4802
I1
ssg6359
(dp7897
g347
I1
sg3
I1
ssg3504
(dp7898
g10
I1
sg3
I1
ssg6681
(dp7899
g3399
I1
sg3
I1
ssg7575
(dp7900
S'do'
p7901
I1
sg3
I2
sg6200
I1
ssg2007
(dp7902
g10
I1
sg3
I1
ssg5806
(dp7903
S'Morty?!'
p7904
I1
sg3
I1
ssS'done.'
p7905
(dp7906
g6191
I1
sg3
I1
ssg7662
(dp7907
S'so'
p7908
I1
sg3
I1
ssg1400
(dp7909
g10
I1
sg3
I1
ssg2485
(dp7910
g7083
I1
sg3
I1
ssg1263
(dp7911
S'off'
p7912
I1
sg3
I3
sg6928
I1
sg4242
I1
ssg6069
(dp7913
S'all'
p7914
I1
sg2191
I1
sg7905
I1
sS'your'
p7915
I1
sS'really'
p7916
I1
sg5237
I1
sg2326
I1
sg61
I1
sg4581
I1
sS'gonna'
p7917
I2
sS'part'
p7918
I1
sg3
I27
sS'Rick.'
p7919
I1
sg7481
I1
sg5811
I1
sg347
I5
sS'fine.'
p7920
I1
sS'gotta'
p7921
I1
sS'time'
p7922
I1
sS'the'
p7923
I2
sg3854
I1
sS'called'
p7924
I1
ssg7120
(dp7925
S'Morty!'
p7926
I1
sg3
I1
ssg1868
(dp7927
S'of'
p7928
I1
sg3
I1
ssg1846
(dp7929
g3
I1
sg3033
I1
ssg3664
(dp7930
g5374
I1
sg3
I1
ssg5623
(dp7931
S'point,'
p7932
I1
sg3
I1
ssg3934
(dp7933
S'we'
p7934
I1
sg3
I1
ssg6820
(dp7935
S'and'
p7936
I1
sg3
I1
ssg5976
(dp7937
S'garage'
p7938
I1
sg3
I1
ssg292
(dp7939
S'Morty!'
p7940
I1
sg3
I1
ssS'finished'
p7941
(dp7942
g3089
I1
sg3
I1
ssg5502
(dp7943
g4313
I1
sg3
I1
ssg6024
(dp7944
g3
I1
sS'think'
p7945
I1
ssg2193
(dp7946
g3
I1
sS'In'
p7947
I1
ssg1275
(dp7948
S'all'
p7949
I2
sg489
I1
sS'season'
p7950
I1
sS'what'
p7951
I2
sg5128
I1
sg3
I15
sg1016
I1
sg356
I2
sg7729
I1
sS'the'
p7952
I2
sS'why'
p7953
I1
sS'right!'
p7954
I1
ssg1276
(dp7955
g347
I2
sg741
I3
sS'now'
p7956
I1
sS"you're"
p7957
I1
sg107
I1
sS'fuck'
p7958
I2
sg2671
I1
sS'here'
p7959
I1
sS'being'
p7960
I1
sg1547
I1
sg3
I20
sS"we're"
p7961
I1
sg6579
I1
sS"that's"
p7962
I2
sS'your'
p7963
I1
sg5095
I1
ssg7579
(dp7964
g3
I1
sS'Morty.'
p7965
I1
ssg4429
(dp7966
g3
I1
sS'huh,'
p7967
I1
ssg3120
(dp7968
g3
I1
sg3937
I1
ssg1852
(dp7969
g3848
I1
sg7533
I1
sg3
I2
ssg1280
(dp7970
g3
I1
sg7410
I1
ssg6992
(dp7971
S'be'
p7972
I2
sS'NEVER'
p7973
I1
sg3
I3
ssg5271
(dp7974
g10
I1
sg3
I1
ssg1204
(dp7975
g347
I2
sg3
I2
ssg5260
(dp7976
g7941
I1
sg3
I1
ssg6397
(dp7977
S'Do'
p7978
I1
sg3
I1
ssg7371
(dp7979
g107
I1
sg3
I1
ssg5472
(dp7980
g598
I1
sg3
I1
ssg1292
(dp7981
S'cool,'
p7982
I1
sg3
I1
ssg5923
(dp7983
S'you'
p7984
I1
sg3
I1
ssg3125
(dp7985
g3
I1
sg6997
I1
ssg6947
(dp7986
g5526
I1
sS"don't"
p7987
I1
sg5296
I1
sS'know,'
p7988
I3
sS'make'
p7989
I1
sS'little'
p7990
I1
sS'avoid'
p7991
I1
sg6666
I1
sg6424
I1
sg4236
I1
sS'beat'
p7992
I1
sg3
I31
sg4114
I1
sS'press'
p7993
I1
sS'wanted'
p7994
I1
sS'realize'
p7995
I2
sS'ever'
p7996
I1
sS'gotta'
p7997
I5
sg3435
I1
sS'can'
p7998
I2
sg4358
I1
sS'wanna'
p7999
I1
sS'think'
p8000
I1
sS"can't"
p8001
I1
ssg4041
(dp8002
S'Morty!'
p8003
I1
sg3
I1
ssg3440
(dp8004
g10
I1
sg3
I1
ssg1603
(dp8005
g3
I1
sS'Morty,'
p8006
I1
ssg3789
(dp8007
g6180
I1
sg3
I2
sS'Morty.'
p8008
I1
ssg6604
(dp8009
g6726
I1
sg3
I1
ssg5900
(dp8010
S'because'
p8011
I1
sg3
I1
ssg6246
(dp8012
g3
I1
sS'like'
p8013
I1
ssg7328
(dp8014
g3
I1
sS'going!'
p8015
I1
ssg7422
(dp8016
g728
I1
sg73
I1
sg3
I2
ssS'now...'
p8017
(dp8018
S'Morty'
p8019
I1
sg3
I1
ssg3900
(dp8020
S"It's"
p8021
I1
sS'we'
p8022
I1
sg3
I2
ssg6013
(dp8023
S'you'
p8024
I1
sg3
I1
ssg5744
(dp8025
g4498
I1
sg3
I1
ssg5602
(dp8026
g3
I1
sS'around'
p8027
I1
ssg4858
(dp8028
g107
I1
sg3
I1
ssg832
(dp8029
S'of'
p8030
I1
sg3
I1
ssg3571
(dp8031
g7255
I1
sg3
I1
ssg4907
(dp8032
g3
I1
sg6109
I1
ssg4672
(dp8033
S'you'
p8034
I1
sg3
I1
ssg2777
(dp8035
g347
I1
sg3
I1
ssg4483
(dp8036
S'on'
p8037
I1
sg7809
I1
sS'this'
p8038
I1
sg5912
I1
sS'an'
p8039
I1
sg1949
I1
sg3
I10
sS'the'
p8040
I1
sS'one'
p8041
I1
sS'your'
p8042
I2
ssg7230
(dp8043
S'our'
p8044
I1
sg3
I1
ssg5200
(dp8045
S"y'know,"
p8046
I1
sg3
I2
sS'Morty,'
p8047
I1
ssg7282
(dp8048
g3014
I1
sg3
I1
ssg601
(dp8049
S'Now'
p8050
I1
sg3
I1
ssg4891
(dp8051
S'All'
p8052
I1
sg3
I1
ssg5126
(dp8053
g3
I1
sg5272
I1
ssg4917
(dp8054
S'ask'
p8055
I1
sg3
I1
ssS'banging'
p8056
(dp8057
S'my'
p8058
I1
sg3
I1
ssg951
(dp8059
g6638
I2
sg3
I2
ssg1319
(dp8060
S'you'
p8061
I1
sg3
I1
ssg5722
(dp8062
g7441
I1
sg3
I1
ssg8015
(dp8063
g10
I1
sg3
I1
ssg4638
(dp8064
g6496
I1
sg3
I3
sg127
I1
sg5770
I1
ssg1186
(dp8065
g3
I1
sg713
I1
ssg344
(dp8066
g6799
I1
sg3
I1
ssg5579
(dp8067
g3
I1
sg666
I1
ssg6943
(dp8068
g10
I1
sg3
I1
ssg1191
(dp8069
g5143
I1
sS'great'
p8070
I1
sS'good'
p8071
I1
sg5499
I1
sg4894
I1
sS'these'
p8072
I1
sg4084
I1
sg6906
I1
sS'it'
p8073
I1
sS'should'
p8074
I1
sS'this'
p8075
I1
sS'yeah,'
p8076
I1
sg3
I18
sg7238
I1
sS"that's"
p8077
I1
sS'great.'
p8078
I2
sg6865
I1
sS'Morty,'
p8079
I1
ssg6014
(dp8080
S'we'
p8081
I1
sg3
I1
ssg2843
(dp8082
g10
I1
sg3
I1
ssg7234
(dp8083
S'Morty!'
p8084
I1
sg3
I2
sS'Morty.'
p8085
I1
ssg6528
(dp8086
g10
I1
sg3
I1
ssg1198
(dp8087
g107
I1
sS'Oh,'
p8088
I1
sg3
I2
ssg3193
(dp8089
S'our'
p8090
I1
sS'what'
p8091
I1
sg3
I3
sS'that'
p8092
I1
ssg4470
(dp8093
S'you.'
p8094
I1
sg3
I1
ssg2161
(dp8095
g347
I1
sg3
I1
ssg760
(dp8096
g3
I1
sS'it'
p8097
I1
ssg6405
(dp8098
g185
I1
sg3
I1
ssg2029
(dp8099
S'so'
p8100
I1
sg3
I1
ssg1702
(dp8101
g3
I1
sS'out'
p8102
I1
ssg5718
(dp8103
g107
I1
sg3
I1
ssg5939
(dp8104
S'what'
p8105
I1
sS'that'
p8106
I1
sS'everything'
p8107
I1
sg3
I5
sS'if'
p8108
I1
sg2504
I1
ssg7993
(dp8109
g3
I1
sS'this\xe2\x80\x94'
p8110
I1
ssg7334
(dp8111
g1584
I1
sg3
I1
ssg4778
(dp8112
S"It's"
p8113
I1
sg3
I1
ssg2897
(dp8114
g3
I1
sg1621
I1
ssg3358
(dp8115
S'on'
p8116
I1
sg3
I1
ssg2965
(dp8117
g3
I1
sS'for'
p8118
I1
ssg478
(dp8119
S'of'
p8120
I1
sg3
I1
ssg7043
(dp8121
g10
I1
sg3
I1
ssg6085
(dp8122
g2984
I1
sg3
I1
ssg3380
(dp8123
g4576
I1
sg3
I1
ssg7938
(dp8124
g5474
I2
sg3
I2
ssg4485
(dp8125
g347
I1
sg6255
I1
sS'the'
p8126
I1
sg3
I3
ssg2538
(dp8127
S'and'
p8128
I1
sg3
I1
ssg4772
(dp8129
g4031
I2
sg3
I2
ssg2041
(dp8130
g10
I1
sg3
I1
ssg1215
(dp8131
g3
I1
sS'sorry,'
p8132
I1
ssg2042
(dp8133
S'of'
p8134
I1
sg3
I1
ssS'oh,'
p8135
(dp8136
g107
I1
sg3
I1
ssg4275
(dp8137
S'like,'
p8138
I1
sg3
I1
ssg2848
(dp8139
g347
I1
sS"it's"
p8140
I1
sS'it'
p8141
I1
sg3
I10
sS"we're"
p8142
I1
sS'Grandpa'
p8143
I1
sS'you'
p8144
I3
sS"I'm"
p8145
I2
ssg4637
(dp8146
g5085
I1
sg3
I1
ssg5838
(dp8147
S'all'
p8148
I1
sS'no'
p8149
I1
sg6793
I1
sS'two'
p8150
I1
sS'an'
p8151
I1
sg3
I5
ssg1928
(dp8152
S'on'
p8153
I1
sS'outta'
p8154
I1
sg3
I2
ssg6985
(dp8155
g10
I1
sg3
I1
ssg7082
(dp8156
S'back,'
p8157
I1
sg3
I2
sS'for'
p8158
I1
ssg4652
(dp8159
g10
I1
sS"It's"
p8160
I1
sg3
I2
ssg7991
(dp8161
g3
I1
sS'getting'
p8162
I1
ssg3595
(dp8163
g3
I1
sg2238
I1
ssg7755
(dp8164
S'his'
p8165
I1
sg1163
I1
sS'it'
p8166
I1
sS'their'
p8167
I1
sg3
I8
sS'something'
p8168
I1
sS'The'
p8169
I1
sS'your'
p8170
I2
ssg2909
(dp8171
g3
I1
sS'up'
p8172
I1
ssS'hey.'
p8173
(dp8174
g3
I1
sg6611
I1
ssg7696
(dp8175
S'what'
p8176
I1
sg3
I1
ssg4024
(dp8177
g1466
I1
sg3
I1
ssg4668
(dp8178
g3
I1
sS'Morty,'
p8179
I1
ssg6396
(dp8180
S'make'
p8181
I1
sg3
I1
ssg4583
(dp8182
g10
I3
sg3
I3
ssg5488
(dp8183
g107
I1
sg3
I1
ssg1728
(dp8184
S'I-I'
p8185
I1
sg3
I1
ssg7
(dp8186
g347
I1
sg3
I1
ssg4292
(dp8187
S'all'
p8188
I1
sS'it'
p8189
I1
sg7199
I1
sS'that,'
p8190
I1
sS'that.'
p8191
I1
sg7278
I1
sS'how'
p8192
I2
sS'going'
p8193
I1
sg5777
I2
sg7212
I1
sg1685
I1
sg7118
I1
sg5796
I1
sg6952
I1
sg3
I25
sg2722
I2
sS'Wall'
p8194
I1
sg8056
I1
sS'this'
p8195
I1
sS'yourself.'
p8196
I1
sS'stuff'
p8197
I1
sS'the'
p8198
I1
sg4250
I1
ssg2070
(dp8199
g3
I1
sg3488
I1
ssg2746
(dp8200
S'with'
p8201
I1
sg5
I1
sg3
I4
sg3860
I1
sg1087
I1
ssg6269
(dp8202
S'is'
p8203
I1
sg3
I2
sS'that'
p8204
I1
ssg7416
(dp8205
g3
I1
sS'that'
p8206
I1
ssg6584
(dp8207
g6457
I1
sg2444
I1
sg3
I2
ssg1553
(dp8208
g4427
I1
sg3
I3
sg2002
I1
sS'in'
p8209
I1
ssg157
(dp8210
S"You're"
p8211
I1
sg10
I3
sS'I-I'
p8212
I1
sg3
I7
sS'The'
p8213
I1
sS"That's"
p8214
I1
ssg746
(dp8215
g3
I1
sS'that'
p8216
I1
ssg4596
(dp8217
g10
I2
sg3
I2
ssg6459
(dp8218
g7037
I1
sg3
I1
ssg1254
(dp8219
S"you're"
p8220
I1
sg3
I3
sS'Morty.'
p8221
I1
sS'Morty,'
p8222
I1
ssg7852
(dp8223
g3
I1
sS'"I'
p8224
I1
ssg6983
(dp8225
g6772
I1
sg5881
I1
sg3
I3
sS"It's"
p8226
I1
ssg454
(dp8227
g3
I1
sS'down,'
p8228
I1
ssg3646
(dp8229
S"it's"
p8230
I1
sg3
I1
ssg6141
(dp8231
g1480
I1
sg3
I1
ssg5643
(dp8232
S'and'
p8233
I2
sg3
I2
ssg5617
(dp8234
S"It's"
p8235
I1
sg3
I2
sS"We're"
p8236
I1
ssg6934
(dp8237
S'what?'
p8238
I1
sg5974
I1
sg3
I2
ssg4351
(dp8239
g3
I1
sS'in'
p8240
I1
ssg2448
(dp8241
g3
I1
sS'your'
p8242
I1
ssg7545
(dp8243
S'down'
p8244
I1
sg3
I1
ssg5020
(dp8245
S'me,'
p8246
I1
sg3
I1
ssg4908
(dp8247
g5222
I1
sg3
I1
ssg4919
(dp8248
g4384
I1
sS'as'
p8249
I1
sg3
I2
ssg5446
(dp8250
g10
I1
sg3
I1
ssg7249
(dp8251
g3
I1
sg2426
I1
ssg7330
(dp8252
g107
I1
sg3
I1
ssg5625
(dp8253
g3
I1
sS'in'
p8254
I1
ssg3726
(dp8255
g3
I1
sg5886
I1
ssg335
(dp8256
g3
I1
sS'find'
p8257
I1
ssg5023
(dp8258
g7747
I1
sg3
I2
sg7816
I1
ssg5601
(dp8259
S'We'
p8260
I1
sg3
I1
ssg4664
(dp8261
g3
I1
sS'for'
p8262
I1
ssg1272
(dp8263
S"y'know,"
p8264
I1
sg3
I1
ssg6266
(dp8265
S"y'know..."
p8266
I1
sg8173
I1
sS'what'
p8267
I1
sg4579
I1
sg709
I1
sS"I've"
p8268
I1
sg107
I2
sg5659
I1
sS'this'
p8269
I1
sg507
I1
sS'you'
p8270
I1
sg5320
I1
sg3
I22
sS'they'
p8271
I1
sg1977
I1
sg3348
I1
sg2769
I1
sg5984
I1
sg8017
I1
sS"I'm"
p8272
I2
sS'nice'
p8273
I1
ssg7611
(dp8274
S'someone'
p8275
I1
sg3
I1
ssg432
(dp8276
g6325
I1
sg3
I1
ssg5648
(dp8277
g3
I1
sg4070
I1
ssg6651
(dp8278
g10
I1
sg3
I1
ssg5548
(dp8279
g774
I1
sg3
I3
sS'your'
p8280
I1
sS'it'
p8281
I1
ssg3219
(dp8282
g7633
I1
sg4111
I1
sS'could'
p8283
I1
sg3844
I1
sS'here'
p8284
I1
sg552
I1
sS'only'
p8285
I1
sS'does'
p8286
I2
sg3
I11
sg7630
I1
sS'comes'
p8287
I1
ssg7564
(dp8288
S'on'
p8289
I1
sg3
I1
ssg785
(dp8290
g347
I1
sS'me'
p8291
I2
sg3
I6
sS'the'
p8292
I1
sS'you!!'
p8293
I1
sS'quick.'
p8294
I1
ssg1278
(dp8295
g3
I1
sS'would'
p8296
I1
ssg8194
(dp8297
g4604
I1
sg3
I1
ssg4482
(dp8298
g3
I2
sS'your'
p8299
I1
sS'those'
p8300
I1
ssg6897
(dp8301
S'We'
p8302
I1
sS'Now'
p8303
I1
sg3
I2
ssg2099
(dp8304
S'This'
p8305
I1
sg3
I1
ssg5634
(dp8306
S'to'
p8307
I1
sg3
I1
ssg4685
(dp8308
S'into'
p8309
I1
sg3
I1
ssg4777
(dp8310
S'too.'
p8311
I1
sg3
I1
ssg5610
(dp8312
S'of'
p8313
I5
sg2650
I1
sg3
I6
ssg3647
(dp8314
g2242
I1
sg3
I1
ssg374
(dp8315
g1668
I1
sg3
I1
ssg1822
(dp8316
g10
I1
sg3
I1
ssg3520
(dp8317
S'and'
p8318
I1
sg272
I1
sg3
I2
ssg6258
(dp8319
S'and'
p8320
I1
sg3
I3
sS'have'
p8321
I2
ssg5636
(dp8322
g3
I1
sS'in'
p8323
I1
ssg2090
(dp8324
g2676
I1
sg3
I1
ssg452
(dp8325
g10
I1
sg3
I1
ssg4241
(dp8326
g4022
I1
sg3
I1
ssg6610
(dp8327
g3
I1
sS'They'
p8328
I1
ssg4910
(dp8329
g7710
I1
sg3
I1
ssg6231
(dp8330
g3345
I1
sS'to'
p8331
I1
sg3
I2
ssg3998
(dp8332
g3
I1
sS'Oh'
p8333
I1
ssg3856
(dp8334
g791
I1
sg3
I1
ssg4783
(dp8335
g1378
I1
sg3
I1
ssg2702
(dp8336
g6999
I1
sg3
I1
ssg986
(dp8337
g7165
I1
sg3
I1
ssg7850
(dp8338
g4345
I1
sg3
I3
sS'Ricks'
p8339
I1
sg7417
I1
ssg8138
(dp8340
g107
I1
sg8135
I1
sg617
I1
sg3
I3
ssg7763
(dp8341
g3
I1
sS'whoa!'
p8342
I1
ssg4665
(dp8343
S'of'
p8344
I2
sg3
I2
ssg8110
(dp8345
S'[a'
p8346
I1
sg3
I1
ssg2120
(dp8347
g3
I1
sS'Morty.'
p8348
I1
ssg6153
(dp8349
g124
I1
sg3
I1
ssg5640
(dp8350
g3
I1
sS'Morty.'
p8351
I1
ssg8342
(dp8352
S'Come'
p8353
I1
sg3
I1
ssg4467
(dp8354
S'with'
p8355
I1
sg7232
I1
sg3
I2
ssg3607
(dp8356
g3101
I1
sg3
I1
ssg4961
(dp8357
g3
I1
sg6796
I1
ssg7919
(dp8358
g10
I1
sS'What'
p8359
I1
sg3
I2
ssg7018
(dp8360
S'This'
p8361
I1
sg3
I1
ssg5312
(dp8362
S'is'
p8363
I1
sg3
I1
ssg1310
(dp8364
g4896
I1
sg3
I1
ssg7262
(dp8365
g3
I1
sS'by'
p8366
I1
ssg4501
(dp8367
S"you're"
p8368
I1
sS'just'
p8369
I1
sg107
I2
sS"it's"
p8370
I1
sg3
I6
sS'can'
p8371
I1
ssg7093
(dp8372
g3
I1
sg284
I1
ssg1000
(dp8373
g3
I1
sS'he'
p8374
I1
ssg7336
(dp8375
g3
I1
sS'but'
p8376
I1
ssg2584
(dp8377
S"it's"
p8378
I1
sg3
I1
ssg3466
(dp8379
S'of'
p8380
I1
sg3
I1
ssg1277
(dp8381
g107
I1
sg3
I1
ssg1316
(dp8382
S'do'
p8383
I1
sg6562
I1
sS'that'
p8384
I1
sS'does'
p8385
I1
sg3
I5
sS"that's"
p8386
I1
ssg6786
(dp8387
g3
I2
sS"don't"
p8388
I2
ssg5706
(dp8389
g6536
I1
sg3
I2
sS'what'
p8390
I1
ss.